Archive member included to satisfy reference by file (symbol)

/home/georgech/intelFPGA_lite/16.1/nios2eds/bin/gnu/H-x86_64-pc-linux-gnu/bin/../lib/gcc/nios2-elf/5.3.0/libgcc.a(adddf3.o)
                              obj/default/main.o (__adddf3)
/home/georgech/intelFPGA_lite/16.1/nios2eds/bin/gnu/H-x86_64-pc-linux-gnu/bin/../lib/gcc/nios2-elf/5.3.0/libgcc.a(muldf3.o)
                              obj/default/main.o (__muldf3)
/home/georgech/intelFPGA_lite/16.1/nios2eds/bin/gnu/H-x86_64-pc-linux-gnu/bin/../lib/gcc/nios2-elf/5.3.0/libgcc.a(floatsidf.o)
                              obj/default/main.o (__floatsidf)
/home/georgech/intelFPGA_lite/16.1/nios2eds/bin/gnu/H-x86_64-pc-linux-gnu/bin/../lib/gcc/nios2-elf/5.3.0/libgcc.a(extendsfdf2.o)
                              obj/default/main.o (__extendsfdf2)
/home/georgech/intelFPGA_lite/16.1/nios2eds/bin/gnu/H-x86_64-pc-linux-gnu/bin/../lib/gcc/nios2-elf/5.3.0/libgcc.a(truncdfsf2.o)
                              obj/default/main.o (__truncdfsf2)
/home/georgech/intelFPGA_lite/16.1/nios2eds/bin/gnu/H-x86_64-pc-linux-gnu/bin/../lib/gcc/nios2-elf/5.3.0/libgcc.a(_clzsi2.o)
                              /home/georgech/intelFPGA_lite/16.1/nios2eds/bin/gnu/H-x86_64-pc-linux-gnu/bin/../lib/gcc/nios2-elf/5.3.0/libgcc.a(adddf3.o) (__clzsi2)
/home/georgech/intelFPGA_lite/16.1/nios2eds/bin/gnu/H-x86_64-pc-linux-gnu/bin/../lib/gcc/nios2-elf/5.3.0/libgcc.a(_clz.o)
                              /home/georgech/intelFPGA_lite/16.1/nios2eds/bin/gnu/H-x86_64-pc-linux-gnu/bin/../lib/gcc/nios2-elf/5.3.0/libgcc.a(_clzsi2.o) (__clz_tab)
../D8M_Camera_Test_bsp//newlib/nios2-elf/lib/libc.a(lib_a-fprintf.o)
                              obj/default/1.o (fprintf)
../D8M_Camera_Test_bsp//newlib/nios2-elf/lib/libc.a(lib_a-fputc.o)
                              obj/default/main.o (fputc)
../D8M_Camera_Test_bsp//newlib/nios2-elf/lib/libc.a(lib_a-fwrite.o)
                              obj/default/1.o (fwrite)
../D8M_Camera_Test_bsp//newlib/nios2-elf/lib/libc.a(lib_a-getc.o)
                              obj/default/main.o (getc)
../D8M_Camera_Test_bsp//newlib/nios2-elf/lib/libc.a(lib_a-impure.o)
                              obj/default/1.o (_impure_ptr)
../D8M_Camera_Test_bsp//newlib/nios2-elf/lib/libc.a(lib_a-malloc.o)
                              obj/default/queue.o (malloc)
../D8M_Camera_Test_bsp//newlib/nios2-elf/lib/libc.a(lib_a-mallocr.o)
                              ../D8M_Camera_Test_bsp//newlib/nios2-elf/lib/libc.a(lib_a-malloc.o) (_malloc_r)
../D8M_Camera_Test_bsp//newlib/nios2-elf/lib/libc.a(lib_a-memset.o)
                              obj/default/queue.o (memset)
../D8M_Camera_Test_bsp//newlib/nios2-elf/lib/libc.a(lib_a-printf.o)
                              obj/default/auto_focus.o (printf)
../D8M_Camera_Test_bsp//newlib/nios2-elf/lib/libc.a(lib_a-putc.o)
                              ../D8M_Camera_Test_bsp//newlib/nios2-elf/lib/libc.a(lib_a-fputc.o) (_putc_r)
../D8M_Camera_Test_bsp//newlib/nios2-elf/lib/libc.a(lib_a-puts.o)
                              obj/default/I2C_core.o (puts)
../D8M_Camera_Test_bsp//newlib/nios2-elf/lib/libc.a(lib_a-rget.o)
                              ../D8M_Camera_Test_bsp//newlib/nios2-elf/lib/libc.a(lib_a-getc.o) (__srget_r)
../D8M_Camera_Test_bsp//newlib/nios2-elf/lib/libc.a(lib_a-sbrkr.o)
                              ../D8M_Camera_Test_bsp//newlib/nios2-elf/lib/libc.a(lib_a-mallocr.o) (_sbrk_r)
../D8M_Camera_Test_bsp//newlib/nios2-elf/lib/libc.a(lib_a-strlen.o)
                              ../D8M_Camera_Test_bsp//newlib/nios2-elf/lib/libc.a(lib_a-puts.o) (strlen)
../D8M_Camera_Test_bsp//newlib/nios2-elf/lib/libc.a(lib_a-vfprintf.o)
                              ../D8M_Camera_Test_bsp//newlib/nios2-elf/lib/libc.a(lib_a-printf.o) (___vfprintf_internal_r)
../D8M_Camera_Test_bsp//newlib/nios2-elf/lib/libc.a(lib_a-wbuf.o)
                              ../D8M_Camera_Test_bsp//newlib/nios2-elf/lib/libc.a(lib_a-putc.o) (__swbuf_r)
../D8M_Camera_Test_bsp//newlib/nios2-elf/lib/libc.a(lib_a-wsetup.o)
                              ../D8M_Camera_Test_bsp//newlib/nios2-elf/lib/libc.a(lib_a-vfprintf.o) (__swsetup_r)
../D8M_Camera_Test_bsp//newlib/nios2-elf/lib/libc.a(lib_a-dtoa.o)
                              ../D8M_Camera_Test_bsp//newlib/nios2-elf/lib/libc.a(lib_a-vfprintf.o) (_dtoa_r)
../D8M_Camera_Test_bsp//newlib/nios2-elf/lib/libc.a(lib_a-fflush.o)
                              ../D8M_Camera_Test_bsp//newlib/nios2-elf/lib/libc.a(lib_a-vfprintf.o) (_fflush_r)
../D8M_Camera_Test_bsp//newlib/nios2-elf/lib/libc.a(lib_a-findfp.o)
                              ../D8M_Camera_Test_bsp//newlib/nios2-elf/lib/libc.a(lib_a-fputc.o) (__sinit)
../D8M_Camera_Test_bsp//newlib/nios2-elf/lib/libc.a(lib_a-freer.o)
                              ../D8M_Camera_Test_bsp//newlib/nios2-elf/lib/libc.a(lib_a-malloc.o) (_free_r)
../D8M_Camera_Test_bsp//newlib/nios2-elf/lib/libc.a(lib_a-fvwrite.o)
                              ../D8M_Camera_Test_bsp//newlib/nios2-elf/lib/libc.a(lib_a-fwrite.o) (__sfvwrite_r)
../D8M_Camera_Test_bsp//newlib/nios2-elf/lib/libc.a(lib_a-fwalk.o)
                              ../D8M_Camera_Test_bsp//newlib/nios2-elf/lib/libc.a(lib_a-findfp.o) (_fwalk)
../D8M_Camera_Test_bsp//newlib/nios2-elf/lib/libc.a(lib_a-int_errno.o)
                              ../D8M_Camera_Test_bsp//newlib/nios2-elf/lib/libc.a(lib_a-sbrkr.o) (errno)
../D8M_Camera_Test_bsp//newlib/nios2-elf/lib/libc.a(lib_a-locale.o)
                              ../D8M_Camera_Test_bsp//newlib/nios2-elf/lib/libc.a(lib_a-vfprintf.o) (_localeconv_r)
../D8M_Camera_Test_bsp//newlib/nios2-elf/lib/libc.a(lib_a-makebuf.o)
                              ../D8M_Camera_Test_bsp//newlib/nios2-elf/lib/libc.a(lib_a-wsetup.o) (__smakebuf_r)
../D8M_Camera_Test_bsp//newlib/nios2-elf/lib/libc.a(lib_a-memchr.o)
                              ../D8M_Camera_Test_bsp//newlib/nios2-elf/lib/libc.a(lib_a-vfprintf.o) (memchr)
../D8M_Camera_Test_bsp//newlib/nios2-elf/lib/libc.a(lib_a-memcpy.o)
                              ../D8M_Camera_Test_bsp//newlib/nios2-elf/lib/libc.a(lib_a-dtoa.o) (memcpy)
../D8M_Camera_Test_bsp//newlib/nios2-elf/lib/libc.a(lib_a-memmove.o)
                              ../D8M_Camera_Test_bsp//newlib/nios2-elf/lib/libc.a(lib_a-fvwrite.o) (memmove)
../D8M_Camera_Test_bsp//newlib/nios2-elf/lib/libc.a(lib_a-mprec.o)
                              ../D8M_Camera_Test_bsp//newlib/nios2-elf/lib/libc.a(lib_a-dtoa.o) (_Balloc)
../D8M_Camera_Test_bsp//newlib/nios2-elf/lib/libc.a(lib_a-reallocr.o)
                              ../D8M_Camera_Test_bsp//newlib/nios2-elf/lib/libc.a(lib_a-fvwrite.o) (_realloc_r)
../D8M_Camera_Test_bsp//newlib/nios2-elf/lib/libc.a(lib_a-refill.o)
                              ../D8M_Camera_Test_bsp//newlib/nios2-elf/lib/libc.a(lib_a-rget.o) (__srefill_r)
../D8M_Camera_Test_bsp//newlib/nios2-elf/lib/libc.a(lib_a-s_fpclassify.o)
                              ../D8M_Camera_Test_bsp//newlib/nios2-elf/lib/libc.a(lib_a-vfprintf.o) (__fpclassifyd)
../D8M_Camera_Test_bsp//newlib/nios2-elf/lib/libc.a(lib_a-stdio.o)
                              ../D8M_Camera_Test_bsp//newlib/nios2-elf/lib/libc.a(lib_a-findfp.o) (__sread)
../D8M_Camera_Test_bsp//newlib/nios2-elf/lib/libc.a(lib_a-strcmp.o)
                              ../D8M_Camera_Test_bsp//newlib/nios2-elf/lib/libc.a(lib_a-locale.o) (strcmp)
../D8M_Camera_Test_bsp//newlib/nios2-elf/lib/libc.a(lib_a-vfiprintf.o)
                              ../D8M_Camera_Test_bsp//newlib/nios2-elf/lib/libc.a(lib_a-vfprintf.o) (__sprint_r)
../D8M_Camera_Test_bsp//newlib/nios2-elf/lib/libc.a(lib_a-writer.o)
                              ../D8M_Camera_Test_bsp//newlib/nios2-elf/lib/libc.a(lib_a-stdio.o) (_write_r)
../D8M_Camera_Test_bsp//newlib/nios2-elf/lib/libc.a(closer.o)
                              ../D8M_Camera_Test_bsp//newlib/nios2-elf/lib/libc.a(lib_a-stdio.o) (_close_r)
../D8M_Camera_Test_bsp//newlib/nios2-elf/lib/libc.a(lib_a-callocr.o)
                              ../D8M_Camera_Test_bsp//newlib/nios2-elf/lib/libc.a(lib_a-mprec.o) (_calloc_r)
../D8M_Camera_Test_bsp//newlib/nios2-elf/lib/libc.a(lib_a-fclose.o)
                              ../D8M_Camera_Test_bsp//newlib/nios2-elf/lib/libc.a(lib_a-findfp.o) (_fclose_r)
../D8M_Camera_Test_bsp//newlib/nios2-elf/lib/libc.a(lib_a-fputwc.o)
                              ../D8M_Camera_Test_bsp//newlib/nios2-elf/lib/libc.a(lib_a-vfiprintf.o) (_fputwc_r)
../D8M_Camera_Test_bsp//newlib/nios2-elf/lib/libc.a(lib_a-fstatr.o)
                              ../D8M_Camera_Test_bsp//newlib/nios2-elf/lib/libc.a(lib_a-makebuf.o) (_fstat_r)
../D8M_Camera_Test_bsp//newlib/nios2-elf/lib/libc.a(lib_a-isattyr.o)
                              ../D8M_Camera_Test_bsp//newlib/nios2-elf/lib/libc.a(lib_a-makebuf.o) (_isatty_r)
../D8M_Camera_Test_bsp//newlib/nios2-elf/lib/libc.a(lib_a-lseekr.o)
                              ../D8M_Camera_Test_bsp//newlib/nios2-elf/lib/libc.a(lib_a-stdio.o) (_lseek_r)
../D8M_Camera_Test_bsp//newlib/nios2-elf/lib/libc.a(lib_a-readr.o)
                              ../D8M_Camera_Test_bsp//newlib/nios2-elf/lib/libc.a(lib_a-stdio.o) (_read_r)
../D8M_Camera_Test_bsp//newlib/nios2-elf/lib/libc.a(lib_a-wcrtomb.o)
                              ../D8M_Camera_Test_bsp//newlib/nios2-elf/lib/libc.a(lib_a-fputwc.o) (_wcrtomb_r)
../D8M_Camera_Test_bsp//newlib/nios2-elf/lib/libc.a(lib_a-wctomb_r.o)
                              ../D8M_Camera_Test_bsp//newlib/nios2-elf/lib/libc.a(lib_a-wcrtomb.o) (__wctomb)
/home/georgech/intelFPGA_lite/16.1/nios2eds/bin/gnu/H-x86_64-pc-linux-gnu/bin/../lib/gcc/nios2-elf/5.3.0/libgcc.a(_udivdi3.o)
                              ../D8M_Camera_Test_bsp//newlib/nios2-elf/lib/libc.a(lib_a-vfprintf.o) (__udivdi3)
/home/georgech/intelFPGA_lite/16.1/nios2eds/bin/gnu/H-x86_64-pc-linux-gnu/bin/../lib/gcc/nios2-elf/5.3.0/libgcc.a(_umoddi3.o)
                              ../D8M_Camera_Test_bsp//newlib/nios2-elf/lib/libc.a(lib_a-vfprintf.o) (__umoddi3)
/home/georgech/intelFPGA_lite/16.1/nios2eds/bin/gnu/H-x86_64-pc-linux-gnu/bin/../lib/gcc/nios2-elf/5.3.0/libgcc.a(lib2-divmod.o)
                              /home/georgech/intelFPGA_lite/16.1/nios2eds/bin/gnu/H-x86_64-pc-linux-gnu/bin/../lib/gcc/nios2-elf/5.3.0/libgcc.a(_udivdi3.o) (__udivsi3)
/home/georgech/intelFPGA_lite/16.1/nios2eds/bin/gnu/H-x86_64-pc-linux-gnu/bin/../lib/gcc/nios2-elf/5.3.0/libgcc.a(divdf3.o)
                              ../D8M_Camera_Test_bsp//newlib/nios2-elf/lib/libc.a(lib_a-dtoa.o) (__divdf3)
/home/georgech/intelFPGA_lite/16.1/nios2eds/bin/gnu/H-x86_64-pc-linux-gnu/bin/../lib/gcc/nios2-elf/5.3.0/libgcc.a(eqdf2.o)
                              ../D8M_Camera_Test_bsp//newlib/nios2-elf/lib/libc.a(lib_a-vfprintf.o) (__eqdf2)
/home/georgech/intelFPGA_lite/16.1/nios2eds/bin/gnu/H-x86_64-pc-linux-gnu/bin/../lib/gcc/nios2-elf/5.3.0/libgcc.a(gedf2.o)
                              ../D8M_Camera_Test_bsp//newlib/nios2-elf/lib/libc.a(lib_a-dtoa.o) (__gtdf2)
/home/georgech/intelFPGA_lite/16.1/nios2eds/bin/gnu/H-x86_64-pc-linux-gnu/bin/../lib/gcc/nios2-elf/5.3.0/libgcc.a(ledf2.o)
                              ../D8M_Camera_Test_bsp//newlib/nios2-elf/lib/libc.a(lib_a-dtoa.o) (__ledf2)
/home/georgech/intelFPGA_lite/16.1/nios2eds/bin/gnu/H-x86_64-pc-linux-gnu/bin/../lib/gcc/nios2-elf/5.3.0/libgcc.a(subdf3.o)
                              ../D8M_Camera_Test_bsp//newlib/nios2-elf/lib/libc.a(lib_a-dtoa.o) (__subdf3)
/home/georgech/intelFPGA_lite/16.1/nios2eds/bin/gnu/H-x86_64-pc-linux-gnu/bin/../lib/gcc/nios2-elf/5.3.0/libgcc.a(fixdfsi.o)
                              ../D8M_Camera_Test_bsp//newlib/nios2-elf/lib/libc.a(lib_a-dtoa.o) (__fixdfsi)
/home/georgech/intelFPGA_lite/16.1/nios2eds/bin/gnu/H-x86_64-pc-linux-gnu/bin/../lib/gcc/nios2-elf/5.3.0/libgcc.a(floatunsidf.o)
                              ../D8M_Camera_Test_bsp//newlib/nios2-elf/lib/libc.a(lib_a-dtoa.o) (__floatunsidf)
../D8M_Camera_Test_bsp//libhal_bsp.a(alt_close.o)
                              ../D8M_Camera_Test_bsp//newlib/nios2-elf/lib/libc.a(closer.o) (close)
../D8M_Camera_Test_bsp//libhal_bsp.a(alt_dev.o)
                              ../D8M_Camera_Test_bsp//libhal_bsp.a(alt_close.o) (alt_fd_list)
../D8M_Camera_Test_bsp//libhal_bsp.a(alt_errno.o)
                              ../D8M_Camera_Test_bsp//libhal_bsp.a(alt_close.o) (alt_errno)
../D8M_Camera_Test_bsp//libhal_bsp.a(alt_fcntl.o)
                              obj/default/main.o (fcntl)
../D8M_Camera_Test_bsp//libhal_bsp.a(alt_fstat.o)
                              ../D8M_Camera_Test_bsp//newlib/nios2-elf/lib/libc.a(lib_a-fstatr.o) (fstat)
../D8M_Camera_Test_bsp//libhal_bsp.a(alt_isatty.o)
                              ../D8M_Camera_Test_bsp//newlib/nios2-elf/lib/libc.a(lib_a-isattyr.o) (isatty)
../D8M_Camera_Test_bsp//libhal_bsp.a(alt_load.o)
                              ../D8M_Camera_Test_bsp//obj/HAL/src/crt0.o (alt_load)
../D8M_Camera_Test_bsp//libhal_bsp.a(alt_lseek.o)
                              ../D8M_Camera_Test_bsp//newlib/nios2-elf/lib/libc.a(lib_a-lseekr.o) (lseek)
../D8M_Camera_Test_bsp//libhal_bsp.a(alt_main.o)
                              ../D8M_Camera_Test_bsp//obj/HAL/src/crt0.o (alt_main)
../D8M_Camera_Test_bsp//libhal_bsp.a(alt_malloc_lock.o)
                              ../D8M_Camera_Test_bsp//newlib/nios2-elf/lib/libc.a(lib_a-mallocr.o) (__malloc_lock)
../D8M_Camera_Test_bsp//libhal_bsp.a(alt_read.o)
                              ../D8M_Camera_Test_bsp//newlib/nios2-elf/lib/libc.a(lib_a-readr.o) (read)
../D8M_Camera_Test_bsp//libhal_bsp.a(alt_release_fd.o)
                              ../D8M_Camera_Test_bsp//libhal_bsp.a(alt_close.o) (alt_release_fd)
../D8M_Camera_Test_bsp//libhal_bsp.a(alt_sbrk.o)
                              ../D8M_Camera_Test_bsp//newlib/nios2-elf/lib/libc.a(lib_a-sbrkr.o) (sbrk)
../D8M_Camera_Test_bsp//libhal_bsp.a(alt_tick.o)
                              obj/default/auto_focus.o (_alt_nticks)
../D8M_Camera_Test_bsp//libhal_bsp.a(alt_usleep.o)
                              obj/default/1.o (usleep)
../D8M_Camera_Test_bsp//libhal_bsp.a(alt_write.o)
                              ../D8M_Camera_Test_bsp//newlib/nios2-elf/lib/libc.a(lib_a-writer.o) (write)
../D8M_Camera_Test_bsp//libhal_bsp.a(alt_sys_init.o)
                              ../D8M_Camera_Test_bsp//libhal_bsp.a(alt_main.o) (alt_irq_init)
../D8M_Camera_Test_bsp//libhal_bsp.a(altera_avalon_jtag_uart_fd.o)
                              ../D8M_Camera_Test_bsp//libhal_bsp.a(alt_sys_init.o) (altera_avalon_jtag_uart_read_fd)
../D8M_Camera_Test_bsp//libhal_bsp.a(altera_avalon_jtag_uart_init.o)
                              ../D8M_Camera_Test_bsp//libhal_bsp.a(alt_sys_init.o) (altera_avalon_jtag_uart_init)
../D8M_Camera_Test_bsp//libhal_bsp.a(altera_avalon_jtag_uart_ioctl.o)
                              ../D8M_Camera_Test_bsp//libhal_bsp.a(altera_avalon_jtag_uart_fd.o) (altera_avalon_jtag_uart_ioctl)
../D8M_Camera_Test_bsp//libhal_bsp.a(altera_avalon_jtag_uart_read.o)
                              ../D8M_Camera_Test_bsp//libhal_bsp.a(altera_avalon_jtag_uart_fd.o) (altera_avalon_jtag_uart_read)
../D8M_Camera_Test_bsp//libhal_bsp.a(altera_avalon_jtag_uart_write.o)
                              ../D8M_Camera_Test_bsp//libhal_bsp.a(altera_avalon_jtag_uart_fd.o) (altera_avalon_jtag_uart_write)
../D8M_Camera_Test_bsp//libhal_bsp.a(altera_avalon_timer_sc.o)
                              ../D8M_Camera_Test_bsp//libhal_bsp.a(alt_sys_init.o) (alt_avalon_timer_sc_init)
../D8M_Camera_Test_bsp//libhal_bsp.a(altera_avalon_uart_fd.o)
                              ../D8M_Camera_Test_bsp//libhal_bsp.a(alt_sys_init.o) (altera_avalon_uart_read_fd)
../D8M_Camera_Test_bsp//libhal_bsp.a(altera_avalon_uart_init.o)
                              ../D8M_Camera_Test_bsp//libhal_bsp.a(alt_sys_init.o) (altera_avalon_uart_init)
../D8M_Camera_Test_bsp//libhal_bsp.a(altera_avalon_uart_read.o)
                              ../D8M_Camera_Test_bsp//libhal_bsp.a(altera_avalon_uart_fd.o) (altera_avalon_uart_read)
../D8M_Camera_Test_bsp//libhal_bsp.a(altera_avalon_uart_write.o)
                              ../D8M_Camera_Test_bsp//libhal_bsp.a(altera_avalon_uart_fd.o) (altera_avalon_uart_write)
../D8M_Camera_Test_bsp//libhal_bsp.a(alt_alarm_start.o)
                              ../D8M_Camera_Test_bsp//libhal_bsp.a(altera_avalon_jtag_uart_init.o) (alt_alarm_start)
../D8M_Camera_Test_bsp//libhal_bsp.a(alt_busy_sleep.o)
                              ../D8M_Camera_Test_bsp//libhal_bsp.a(alt_usleep.o) (alt_busy_sleep)
../D8M_Camera_Test_bsp//libhal_bsp.a(alt_dcache_flush_all.o)
                              ../D8M_Camera_Test_bsp//libhal_bsp.a(alt_load.o) (alt_dcache_flush_all)
../D8M_Camera_Test_bsp//libhal_bsp.a(alt_dev_llist_insert.o)
                              ../D8M_Camera_Test_bsp//libhal_bsp.a(alt_sys_init.o) (alt_dev_llist_insert)
../D8M_Camera_Test_bsp//libhal_bsp.a(alt_do_ctors.o)
                              ../D8M_Camera_Test_bsp//libhal_bsp.a(alt_main.o) (_do_ctors)
../D8M_Camera_Test_bsp//libhal_bsp.a(alt_do_dtors.o)
                              ../D8M_Camera_Test_bsp//libhal_bsp.a(alt_main.o) (_do_dtors)
../D8M_Camera_Test_bsp//libhal_bsp.a(alt_icache_flush_all.o)
                              ../D8M_Camera_Test_bsp//libhal_bsp.a(alt_load.o) (alt_icache_flush_all)
../D8M_Camera_Test_bsp//libhal_bsp.a(alt_iic.o)
                              ../D8M_Camera_Test_bsp//libhal_bsp.a(altera_avalon_jtag_uart_init.o) (alt_ic_isr_register)
../D8M_Camera_Test_bsp//libhal_bsp.a(alt_iic_isr_register.o)
                              ../D8M_Camera_Test_bsp//libhal_bsp.a(alt_iic.o) (alt_iic_isr_register)
../D8M_Camera_Test_bsp//libhal_bsp.a(alt_io_redirect.o)
                              ../D8M_Camera_Test_bsp//libhal_bsp.a(alt_main.o) (alt_io_redirect)
../D8M_Camera_Test_bsp//libhal_bsp.a(alt_irq_entry.o)
                              ../D8M_Camera_Test_bsp//libhal_bsp.a(alt_iic_isr_register.o) (alt_irq_entry)
../D8M_Camera_Test_bsp//libhal_bsp.a(alt_irq_handler.o)
                              ../D8M_Camera_Test_bsp//libhal_bsp.a(alt_iic_isr_register.o) (alt_irq_handler)
../D8M_Camera_Test_bsp//libhal_bsp.a(alt_irq_vars.o)
                              ../D8M_Camera_Test_bsp//libhal_bsp.a(alt_iic.o) (alt_irq_active)
../D8M_Camera_Test_bsp//libhal_bsp.a(alt_open.o)
                              ../D8M_Camera_Test_bsp//libhal_bsp.a(alt_io_redirect.o) (open)
../D8M_Camera_Test_bsp//libhal_bsp.a(altera_nios2_gen2_irq.o)
                              ../D8M_Camera_Test_bsp//libhal_bsp.a(alt_sys_init.o) (altera_nios2_gen2_irq_init)
../D8M_Camera_Test_bsp//libhal_bsp.a(alt_exception_entry.o)
                              ../D8M_Camera_Test_bsp//libhal_bsp.a(alt_irq_entry.o) (alt_exception)
../D8M_Camera_Test_bsp//libhal_bsp.a(alt_find_dev.o)
                              ../D8M_Camera_Test_bsp//libhal_bsp.a(alt_open.o) (alt_find_dev)
../D8M_Camera_Test_bsp//libhal_bsp.a(alt_find_file.o)
                              ../D8M_Camera_Test_bsp//libhal_bsp.a(alt_open.o) (alt_find_file)
../D8M_Camera_Test_bsp//libhal_bsp.a(alt_get_fd.o)
                              ../D8M_Camera_Test_bsp//libhal_bsp.a(alt_open.o) (alt_get_fd)
../D8M_Camera_Test_bsp//libhal_bsp.a(alt_icache_flush.o)
                              ../D8M_Camera_Test_bsp//libhal_bsp.a(alt_icache_flush_all.o) (alt_icache_flush)
../D8M_Camera_Test_bsp//libhal_bsp.a(alt_instruction_exception_entry.o)
                              ../D8M_Camera_Test_bsp//libhal_bsp.a(alt_exception_entry.o) (alt_instruction_exception_entry)
../D8M_Camera_Test_bsp//newlib/nios2-elf/lib/libc.a(lib_a-atexit.o)
                              ../D8M_Camera_Test_bsp//libhal_bsp.a(alt_main.o) (atexit)
../D8M_Camera_Test_bsp//newlib/nios2-elf/lib/libc.a(lib_a-exit.o)
                              ../D8M_Camera_Test_bsp//libhal_bsp.a(alt_main.o) (exit)
../D8M_Camera_Test_bsp//newlib/nios2-elf/lib/libc.a(lib_a-memcmp.o)
                              ../D8M_Camera_Test_bsp//libhal_bsp.a(alt_find_dev.o) (memcmp)
../D8M_Camera_Test_bsp//newlib/nios2-elf/lib/libc.a(lib_a-__atexit.o)
                              ../D8M_Camera_Test_bsp//newlib/nios2-elf/lib/libc.a(lib_a-atexit.o) (__register_exitproc)
../D8M_Camera_Test_bsp//newlib/nios2-elf/lib/libc.a(lib_a-__call_atexit.o)
                              ../D8M_Camera_Test_bsp//newlib/nios2-elf/lib/libc.a(lib_a-exit.o) (__call_exitprocs)
../D8M_Camera_Test_bsp//libhal_bsp.a(alt_exit.o)
                              ../D8M_Camera_Test_bsp//newlib/nios2-elf/lib/libc.a(lib_a-exit.o) (_exit)

Allocating common symbols
Common symbol       size              file

alt_irq             0x100             ../D8M_Camera_Test_bsp//libhal_bsp.a(alt_irq_handler.o)
errno               0x4               ../D8M_Camera_Test_bsp//newlib/nios2-elf/lib/libc.a(lib_a-int_errno.o)

Memory Configuration

Name             Origin             Length             Attributes
reset            0x0000000000020000 0x0000000000000020
onchip_memory2_0 0x0000000000020020 0x000000000001ffe0
*default*        0x0000000000000000 0xffffffffffffffff

Linker script and memory map

LOAD ../D8M_Camera_Test_bsp//obj/HAL/src/crt0.o
LOAD obj/default/1.o
LOAD obj/default/I2C_core.o
LOAD obj/default/auto_focus.o
LOAD obj/default/main.o
LOAD obj/default/mipi_bridge_config.o
LOAD obj/default/mipi_camera_config.o
LOAD obj/default/mipi_helpers.o
LOAD obj/default/queue.o
LOAD /home/georgech/intelFPGA_lite/16.1/nios2eds/bin/gnu/H-x86_64-pc-linux-gnu/bin/../lib/gcc/nios2-elf/5.3.0/../../../../../H-x86_64-pc-linux-gnu/nios2-elf/lib/libstdc++.a
LOAD ../D8M_Camera_Test_bsp//newlib/nios2-elf/lib/libm.a
LOAD /home/georgech/intelFPGA_lite/16.1/nios2eds/bin/gnu/H-x86_64-pc-linux-gnu/bin/../lib/gcc/nios2-elf/5.3.0/libgcc.a
START GROUP
LOAD ../D8M_Camera_Test_bsp//newlib/nios2-elf/lib/libc.a
LOAD /home/georgech/intelFPGA_lite/16.1/nios2eds/bin/gnu/H-x86_64-pc-linux-gnu/bin/../lib/gcc/nios2-elf/5.3.0/libgcc.a
LOAD ../D8M_Camera_Test_bsp//libhal_bsp.a
LOAD ../D8M_Camera_Test_bsp//newlib/nios2-elf/lib/libm.a
END GROUP
LOAD /home/georgech/intelFPGA_lite/16.1/nios2eds/bin/gnu/H-x86_64-pc-linux-gnu/bin/../lib/gcc/nios2-elf/5.3.0/libgcc.a
                0x0000000000020000                __alt_mem_onchip_memory2_0 = 0x20000

.entry          0x0000000000020000       0x20
 *(.entry)
 .entry         0x0000000000020000       0x20 ../D8M_Camera_Test_bsp//obj/HAL/src/crt0.o
                0x0000000000020000                __reset

.exceptions     0x0000000000020020      0x16c
                0x0000000000020020                PROVIDE (__ram_exceptions_start, ABSOLUTE (.))
                0x0000000000020020                . = ALIGN (0x20)
 *(.irq)
 *(.exceptions.entry.label)
 .exceptions.entry.label
                0x0000000000020020        0x0 ../D8M_Camera_Test_bsp//libhal_bsp.a(alt_irq_entry.o)
                0x0000000000020020                alt_irq_entry
 .exceptions.entry.label
                0x0000000000020020        0x0 ../D8M_Camera_Test_bsp//libhal_bsp.a(alt_exception_entry.o)
                0x0000000000020020                alt_exception
 *(.exceptions.entry.user)
 *(.exceptions.entry.ecc_fatal)
 *(.exceptions.entry)
 .exceptions.entry
                0x0000000000020020       0x54 ../D8M_Camera_Test_bsp//libhal_bsp.a(alt_exception_entry.o)
 *(.exceptions.irqtest.user)
 *(.exceptions.irqtest)
 .exceptions.irqtest
                0x0000000000020074       0x10 ../D8M_Camera_Test_bsp//libhal_bsp.a(alt_irq_entry.o)
 *(.exceptions.irqhandler.user)
 *(.exceptions.irqhandler)
 .exceptions.irqhandler
                0x0000000000020084        0x4 ../D8M_Camera_Test_bsp//libhal_bsp.a(alt_irq_entry.o)
 *(.exceptions.irqreturn.user)
 *(.exceptions.irqreturn)
 .exceptions.irqreturn
                0x0000000000020088        0x4 ../D8M_Camera_Test_bsp//libhal_bsp.a(alt_irq_entry.o)
 *(.exceptions.notirq.label)
 .exceptions.notirq.label
                0x000000000002008c        0x0 ../D8M_Camera_Test_bsp//libhal_bsp.a(alt_irq_entry.o)
 *(.exceptions.notirq.user)
 *(.exceptions.notirq)
 .exceptions.notirq
                0x000000000002008c        0x8 ../D8M_Camera_Test_bsp//libhal_bsp.a(alt_exception_entry.o)
 *(.exceptions.soft.user)
 *(.exceptions.soft)
 *(.exceptions.unknown.user)
 *(.exceptions.unknown)
 .exceptions.unknown
                0x0000000000020094       0x14 ../D8M_Camera_Test_bsp//libhal_bsp.a(alt_exception_entry.o)
 *(.exceptions.exit.label)
 .exceptions.exit.label
                0x00000000000200a8        0x0 ../D8M_Camera_Test_bsp//libhal_bsp.a(alt_irq_entry.o)
 .exceptions.exit.label
                0x00000000000200a8        0x0 ../D8M_Camera_Test_bsp//libhal_bsp.a(alt_exception_entry.o)
 *(.exceptions.exit.user)
 *(.exceptions.exit)
 .exceptions.exit
                0x00000000000200a8       0x54 ../D8M_Camera_Test_bsp//libhal_bsp.a(alt_exception_entry.o)
 *(.exceptions)
 .exceptions    0x00000000000200fc       0x64 ../D8M_Camera_Test_bsp//libhal_bsp.a(alt_irq_handler.o)
                0x00000000000200fc                alt_irq_handler
 .exceptions    0x0000000000020160       0x2c ../D8M_Camera_Test_bsp//libhal_bsp.a(alt_instruction_exception_entry.o)
                0x0000000000020160                alt_instruction_exception_entry
                0x000000000002018c                PROVIDE (__ram_exceptions_end, ABSOLUTE (.))
                0x0000000000020020                PROVIDE (__flash_exceptions_start, LOADADDR (.exceptions))

.text           0x000000000002018c    0x16694
                [!provide]                        PROVIDE (stext, ABSOLUTE (.))
 *(.interp)
 *(.hash)
 *(.dynsym)
 *(.dynstr)
 *(.gnu.version)
 *(.gnu.version_d)
 *(.gnu.version_r)
 *(.rel.init)
 *(.rela.init)
 *(.rel.text .rel.text.* .rel.gnu.linkonce.t.*)
 *(.rela.text .rela.text.* .rela.gnu.linkonce.t.*)
 *(.rel.fini)
 *(.rela.fini)
 *(.rel.rodata .rel.rodata.* .rel.gnu.linkonce.r.*)
 *(.rela.rodata .rela.rodata.* .rela.gnu.linkonce.r.*)
 *(.rel.data .rel.data.* .rel.gnu.linkonce.d.*)
 *(.rela.data .rela.data.* .rela.gnu.linkonce.d.*)
 *(.rel.tdata .rel.tdata.* .rel.gnu.linkonce.td.*)
 *(.rela.tdata .rela.tdata.* .rela.gnu.linkonce.td.*)
 *(.rel.tbss .rel.tbss.* .rel.gnu.linkonce.tb.*)
 *(.rela.tbss .rela.tbss.* .rela.gnu.linkonce.tb.*)
 *(.rel.ctors)
 *(.rela.ctors)
 *(.rel.dtors)
 *(.rela.dtors)
 *(.rel.got)
 *(.rela.got)
 *(.rel.sdata .rel.sdata.* .rel.gnu.linkonce.s.*)
 *(.rela.sdata .rela.sdata.* .rela.gnu.linkonce.s.*)
 *(.rel.sbss .rel.sbss.* .rel.gnu.linkonce.sb.*)
 *(.rela.sbss .rela.sbss.* .rela.gnu.linkonce.sb.*)
 *(.rel.sdata2 .rel.sdata2.* .rel.gnu.linkonce.s2.*)
 *(.rela.sdata2 .rela.sdata2.* .rela.gnu.linkonce.s2.*)
 *(.rel.sbss2 .rel.sbss2.* .rel.gnu.linkonce.sb2.*)
 *(.rela.sbss2 .rela.sbss2.* .rela.gnu.linkonce.sb2.*)
 *(.rel.bss .rel.bss.* .rel.gnu.linkonce.b.*)
 *(.rela.bss .rela.bss.* .rela.gnu.linkonce.b.*)
 *(.rel.plt)
 *(.rela.plt)
 *(.rel.dyn)
 *(.init)
 *(.plt)
 *(.text .stub .text.* .gnu.linkonce.t.*)
 .text          0x000000000002018c       0x4c ../D8M_Camera_Test_bsp//obj/HAL/src/crt0.o
                0x000000000002018c                _start
 .text          0x00000000000201d8       0x7c obj/default/1.o
                0x00000000000201d8                main1
 .text          0x0000000000020254      0xda8 obj/default/I2C_core.o
                0x0000000000020254                Write32_Data
                0x00000000000202ac                Read32_Data
                0x0000000000020304                oc_i2c_init
                0x000000000002035c                oc_i2c_init_ex
                0x0000000000020494                oc_i2c_uninit
                0x0000000000020518                ACK_single_check
                0x00000000000205a4                ACK_check
                0x0000000000020604                OC_I2C_Write
                0x0000000000020804                ACK_judge_for_read
                0x0000000000020868                OC_I2C_Read
                0x0000000000020a34                OC_I2C_Read_Continue
                0x0000000000020b6c                OC_I2CL_Write
                0x0000000000020d7c                OC_I2CL_Read
 .text          0x0000000000020ffc      0x3b8 obj/default/auto_focus.o
                0x0000000000020ffc                Focus_Init
                0x0000000000021124                Focus_Window
                0x0000000000021304                Focus_Released
 .text          0x00000000000213b4     0x1318 obj/default/main.o
                0x00000000000213b4                calcLoc
                0x0000000000021e00                main
 .text          0x00000000000226cc      0x2ac obj/default/mipi_bridge_config.o
                0x00000000000226cc                nSWAP16
                0x0000000000022718                MipiBridgeRegWrite
                0x0000000000022784                MipiBridgeRegRead
                0x00000000000227fc                MipiBridgeInit
 .text          0x0000000000022978      0xc64 obj/default/mipi_camera_config.o
                0x0000000000022978                OV8865_read_cmos_sensor_8
                0x00000000000229dc                OV8865_write_cmos_sensor_8
                0x0000000000022a48                OV8865_write_AF
                0x0000000000022ab4                OV8865_read_AF
                0x0000000000022b48                OV8865_FOCUS_Move_to
                0x0000000000022c34                OV8865SetExposure
                0x0000000000022d30                OV8865SetGain
                0x0000000000022e18                OV8865SetRedMWBGain
                0x0000000000022eec                OV8865SetGreenMWBGain
                0x0000000000022fc0                OV8865SetBlueMWBGain
                0x0000000000023094                OV8865ReadExposure
                0x000000000002316c                MIPI_BIN_LEVEL
                0x0000000000023348                MipiCameraInit
 .text          0x00000000000235dc      0x448 obj/default/mipi_helpers.o
                0x00000000000235dc                mipi_clear_error
                0x0000000000023694                mipi_show_error_info
                0x0000000000023740                mipi_show_error_info_more
                0x0000000000023980                MIPI_Init
 .text          0x0000000000023a24      0x28c obj/default/queue.o
                0x0000000000023a24                QUEUE_New
                0x0000000000023a94                QUEUE_Delete
                0x0000000000023ac8                QUEUE_IsEmpty
                0x0000000000023b08                QUEUE_IsFull
                0x0000000000023b60                QUEUE_Push
                0x0000000000023bf0                QUEUE_Pop
                0x0000000000023c7c                QUEUE_Empty
 .text          0x0000000000023cb0      0x8ac /home/georgech/intelFPGA_lite/16.1/nios2eds/bin/gnu/H-x86_64-pc-linux-gnu/bin/../lib/gcc/nios2-elf/5.3.0/libgcc.a(adddf3.o)
                0x0000000000023cb0                __adddf3
 .text          0x000000000002455c      0x718 /home/georgech/intelFPGA_lite/16.1/nios2eds/bin/gnu/H-x86_64-pc-linux-gnu/bin/../lib/gcc/nios2-elf/5.3.0/libgcc.a(muldf3.o)
                0x000000000002455c                __muldf3
 .text          0x0000000000024c74       0xdc /home/georgech/intelFPGA_lite/16.1/nios2eds/bin/gnu/H-x86_64-pc-linux-gnu/bin/../lib/gcc/nios2-elf/5.3.0/libgcc.a(floatsidf.o)
                0x0000000000024c74                __floatsidf
 .text          0x0000000000024d50      0x110 /home/georgech/intelFPGA_lite/16.1/nios2eds/bin/gnu/H-x86_64-pc-linux-gnu/bin/../lib/gcc/nios2-elf/5.3.0/libgcc.a(extendsfdf2.o)
                0x0000000000024d50                __extendsfdf2
 .text          0x0000000000024e60      0x1a8 /home/georgech/intelFPGA_lite/16.1/nios2eds/bin/gnu/H-x86_64-pc-linux-gnu/bin/../lib/gcc/nios2-elf/5.3.0/libgcc.a(truncdfsf2.o)
                0x0000000000024e60                __truncdfsf2
 .text          0x0000000000025008       0x64 /home/georgech/intelFPGA_lite/16.1/nios2eds/bin/gnu/H-x86_64-pc-linux-gnu/bin/../lib/gcc/nios2-elf/5.3.0/libgcc.a(_clzsi2.o)
                0x0000000000025008                __clzsi2
 .text          0x000000000002506c        0x0 /home/georgech/intelFPGA_lite/16.1/nios2eds/bin/gnu/H-x86_64-pc-linux-gnu/bin/../lib/gcc/nios2-elf/5.3.0/libgcc.a(_clz.o)
 .text          0x000000000002506c        0x0 ../D8M_Camera_Test_bsp//newlib/nios2-elf/lib/libc.a(lib_a-fprintf.o)
 .text._fprintf_r
                0x000000000002506c       0x58 ../D8M_Camera_Test_bsp//newlib/nios2-elf/lib/libc.a(lib_a-fprintf.o)
                0x000000000002506c                _fprintf_r
 .text.fprintf  0x00000000000250c4       0x58 ../D8M_Camera_Test_bsp//newlib/nios2-elf/lib/libc.a(lib_a-fprintf.o)
                0x00000000000250c4                fprintf
 .text          0x000000000002511c        0x0 ../D8M_Camera_Test_bsp//newlib/nios2-elf/lib/libc.a(lib_a-fputc.o)
 .text._fputc_r
                0x000000000002511c       0x6c ../D8M_Camera_Test_bsp//newlib/nios2-elf/lib/libc.a(lib_a-fputc.o)
                0x000000000002511c                _fputc_r
 .text.fputc    0x0000000000025188       0x78 ../D8M_Camera_Test_bsp//newlib/nios2-elf/lib/libc.a(lib_a-fputc.o)
                0x0000000000025188                fputc
 .text          0x0000000000025200        0x0 ../D8M_Camera_Test_bsp//newlib/nios2-elf/lib/libc.a(lib_a-fwrite.o)
 .text._fwrite_r
                0x0000000000025200      0x108 ../D8M_Camera_Test_bsp//newlib/nios2-elf/lib/libc.a(lib_a-fwrite.o)
                0x0000000000025200                _fwrite_r
 .text.fwrite   0x0000000000025308       0x5c ../D8M_Camera_Test_bsp//newlib/nios2-elf/lib/libc.a(lib_a-fwrite.o)
                0x0000000000025308                fwrite
 .text          0x0000000000025364        0x0 ../D8M_Camera_Test_bsp//newlib/nios2-elf/lib/libc.a(lib_a-getc.o)
 .text._getc_r  0x0000000000025364       0x98 ../D8M_Camera_Test_bsp//newlib/nios2-elf/lib/libc.a(lib_a-getc.o)
                0x0000000000025364                _getc_r
 .text.getc     0x00000000000253fc       0xa4 ../D8M_Camera_Test_bsp//newlib/nios2-elf/lib/libc.a(lib_a-getc.o)
                0x00000000000253fc                getc
 .text          0x00000000000254a0        0x0 ../D8M_Camera_Test_bsp//newlib/nios2-elf/lib/libc.a(lib_a-impure.o)
 .text          0x00000000000254a0        0x0 ../D8M_Camera_Test_bsp//newlib/nios2-elf/lib/libc.a(lib_a-malloc.o)
 .text.malloc   0x00000000000254a0       0x40 ../D8M_Camera_Test_bsp//newlib/nios2-elf/lib/libc.a(lib_a-malloc.o)
                0x00000000000254a0                malloc
 .text.free     0x00000000000254e0       0x44 ../D8M_Camera_Test_bsp//newlib/nios2-elf/lib/libc.a(lib_a-malloc.o)
                0x00000000000254e0                free
 .text          0x0000000000025524        0x0 ../D8M_Camera_Test_bsp//newlib/nios2-elf/lib/libc.a(lib_a-mallocr.o)
 .text.malloc_extend_top
                0x0000000000025524      0x3b4 ../D8M_Camera_Test_bsp//newlib/nios2-elf/lib/libc.a(lib_a-mallocr.o)
 .text._malloc_r
                0x00000000000258d8      0xb7c ../D8M_Camera_Test_bsp//newlib/nios2-elf/lib/libc.a(lib_a-mallocr.o)
                0x00000000000258d8                _malloc_r
 .text          0x0000000000026454        0x0 ../D8M_Camera_Test_bsp//newlib/nios2-elf/lib/libc.a(lib_a-memset.o)
 .text.memset   0x0000000000026454      0x1c4 ../D8M_Camera_Test_bsp//newlib/nios2-elf/lib/libc.a(lib_a-memset.o)
                0x0000000000026454                memset
 .text          0x0000000000026618        0x0 ../D8M_Camera_Test_bsp//newlib/nios2-elf/lib/libc.a(lib_a-printf.o)
 .text._printf_r
                0x0000000000026618       0x64 ../D8M_Camera_Test_bsp//newlib/nios2-elf/lib/libc.a(lib_a-printf.o)
                0x0000000000026618                _printf_r
 .text.printf   0x000000000002667c       0x78 ../D8M_Camera_Test_bsp//newlib/nios2-elf/lib/libc.a(lib_a-printf.o)
                0x000000000002667c                printf
 .text          0x00000000000266f4        0x0 ../D8M_Camera_Test_bsp//newlib/nios2-elf/lib/libc.a(lib_a-putc.o)
 .text._putc_r  0x00000000000266f4      0x104 ../D8M_Camera_Test_bsp//newlib/nios2-elf/lib/libc.a(lib_a-putc.o)
                0x00000000000266f4                _putc_r
 .text.putc     0x00000000000267f8      0x110 ../D8M_Camera_Test_bsp//newlib/nios2-elf/lib/libc.a(lib_a-putc.o)
                0x00000000000267f8                putc
 .text          0x0000000000026908        0x0 ../D8M_Camera_Test_bsp//newlib/nios2-elf/lib/libc.a(lib_a-puts.o)
 .text._puts_r  0x0000000000026908      0x118 ../D8M_Camera_Test_bsp//newlib/nios2-elf/lib/libc.a(lib_a-puts.o)
                0x0000000000026908                _puts_r
 .text.puts     0x0000000000026a20       0x40 ../D8M_Camera_Test_bsp//newlib/nios2-elf/lib/libc.a(lib_a-puts.o)
                0x0000000000026a20                puts
 .text          0x0000000000026a60        0x0 ../D8M_Camera_Test_bsp//newlib/nios2-elf/lib/libc.a(lib_a-rget.o)
 .text.__srget_r
                0x0000000000026a60       0x90 ../D8M_Camera_Test_bsp//newlib/nios2-elf/lib/libc.a(lib_a-rget.o)
                0x0000000000026a60                __srget_r
 .text.__srget  0x0000000000026af0       0x40 ../D8M_Camera_Test_bsp//newlib/nios2-elf/lib/libc.a(lib_a-rget.o)
                0x0000000000026af0                __srget
 .text          0x0000000000026b30        0x0 ../D8M_Camera_Test_bsp//newlib/nios2-elf/lib/libc.a(lib_a-sbrkr.o)
 .text._sbrk_r  0x0000000000026b30       0x78 ../D8M_Camera_Test_bsp//newlib/nios2-elf/lib/libc.a(lib_a-sbrkr.o)
                0x0000000000026b30                _sbrk_r
 .text          0x0000000000026ba8        0x0 ../D8M_Camera_Test_bsp//newlib/nios2-elf/lib/libc.a(lib_a-strlen.o)
 .text.strlen   0x0000000000026ba8       0xf4 ../D8M_Camera_Test_bsp//newlib/nios2-elf/lib/libc.a(lib_a-strlen.o)
                0x0000000000026ba8                strlen
 .text          0x0000000000026c9c        0x0 ../D8M_Camera_Test_bsp//newlib/nios2-elf/lib/libc.a(lib_a-vfprintf.o)
 .text.__sbprintf
                0x0000000000026c9c       0xf0 ../D8M_Camera_Test_bsp//newlib/nios2-elf/lib/libc.a(lib_a-vfprintf.o)
 .text.__vfprintf_internal
                0x0000000000026d8c       0x58 ../D8M_Camera_Test_bsp//newlib/nios2-elf/lib/libc.a(lib_a-vfprintf.o)
                0x0000000000026d8c                __vfprintf_internal
 .text.___vfprintf_internal_r
                0x0000000000026de4     0x20d0 ../D8M_Camera_Test_bsp//newlib/nios2-elf/lib/libc.a(lib_a-vfprintf.o)
                0x0000000000026de4                ___vfprintf_internal_r
 .text.cvt      0x0000000000028eb4      0x20c ../D8M_Camera_Test_bsp//newlib/nios2-elf/lib/libc.a(lib_a-vfprintf.o)
 .text.exponent
                0x00000000000290c0      0x138 ../D8M_Camera_Test_bsp//newlib/nios2-elf/lib/libc.a(lib_a-vfprintf.o)
 .text          0x00000000000291f8        0x0 ../D8M_Camera_Test_bsp//newlib/nios2-elf/lib/libc.a(lib_a-wbuf.o)
 .text.__swbuf_r
                0x00000000000291f8      0x168 ../D8M_Camera_Test_bsp//newlib/nios2-elf/lib/libc.a(lib_a-wbuf.o)
                0x00000000000291f8                __swbuf_r
 .text.__swbuf  0x0000000000029360       0x48 ../D8M_Camera_Test_bsp//newlib/nios2-elf/lib/libc.a(lib_a-wbuf.o)
                0x0000000000029360                __swbuf
 .text          0x00000000000293a8        0x0 ../D8M_Camera_Test_bsp//newlib/nios2-elf/lib/libc.a(lib_a-wsetup.o)
 .text.__swsetup_r
                0x00000000000293a8      0x1a8 ../D8M_Camera_Test_bsp//newlib/nios2-elf/lib/libc.a(lib_a-wsetup.o)
                0x00000000000293a8                __swsetup_r
 .text          0x0000000000029550        0x0 ../D8M_Camera_Test_bsp//newlib/nios2-elf/lib/libc.a(lib_a-dtoa.o)
 .text.quorem   0x0000000000029550      0x3ac ../D8M_Camera_Test_bsp//newlib/nios2-elf/lib/libc.a(lib_a-dtoa.o)
 .text._dtoa_r  0x00000000000298fc     0x1b78 ../D8M_Camera_Test_bsp//newlib/nios2-elf/lib/libc.a(lib_a-dtoa.o)
                0x00000000000298fc                _dtoa_r
 .text          0x000000000002b474        0x0 ../D8M_Camera_Test_bsp//newlib/nios2-elf/lib/libc.a(lib_a-fflush.o)
 .text.__sflush_r
                0x000000000002b474      0x304 ../D8M_Camera_Test_bsp//newlib/nios2-elf/lib/libc.a(lib_a-fflush.o)
                0x000000000002b474                __sflush_r
 .text._fflush_r
                0x000000000002b778       0x88 ../D8M_Camera_Test_bsp//newlib/nios2-elf/lib/libc.a(lib_a-fflush.o)
                0x000000000002b778                _fflush_r
 .text.fflush   0x000000000002b800       0x64 ../D8M_Camera_Test_bsp//newlib/nios2-elf/lib/libc.a(lib_a-fflush.o)
                0x000000000002b800                fflush
 .text          0x000000000002b864        0x0 ../D8M_Camera_Test_bsp//newlib/nios2-elf/lib/libc.a(lib_a-findfp.o)
 .text.std      0x000000000002b864       0xf4 ../D8M_Camera_Test_bsp//newlib/nios2-elf/lib/libc.a(lib_a-findfp.o)
 .text.__sfmoreglue
                0x000000000002b958       0xa4 ../D8M_Camera_Test_bsp//newlib/nios2-elf/lib/libc.a(lib_a-findfp.o)
                0x000000000002b958                __sfmoreglue
 .text.__sfp    0x000000000002b9fc      0x1ac ../D8M_Camera_Test_bsp//newlib/nios2-elf/lib/libc.a(lib_a-findfp.o)
                0x000000000002b9fc                __sfp
 .text._cleanup_r
                0x000000000002bba8       0x44 ../D8M_Camera_Test_bsp//newlib/nios2-elf/lib/libc.a(lib_a-findfp.o)
                0x000000000002bba8                _cleanup_r
 .text._cleanup
                0x000000000002bbec       0x3c ../D8M_Camera_Test_bsp//newlib/nios2-elf/lib/libc.a(lib_a-findfp.o)
                0x000000000002bbec                _cleanup
 .text.__sinit  0x000000000002bc28       0xd8 ../D8M_Camera_Test_bsp//newlib/nios2-elf/lib/libc.a(lib_a-findfp.o)
                0x000000000002bc28                __sinit
 .text.__sfp_lock_acquire
                0x000000000002bd00       0x20 ../D8M_Camera_Test_bsp//newlib/nios2-elf/lib/libc.a(lib_a-findfp.o)
                0x000000000002bd00                __sfp_lock_acquire
 .text.__sfp_lock_release
                0x000000000002bd20       0x20 ../D8M_Camera_Test_bsp//newlib/nios2-elf/lib/libc.a(lib_a-findfp.o)
                0x000000000002bd20                __sfp_lock_release
 .text.__sinit_lock_acquire
                0x000000000002bd40       0x20 ../D8M_Camera_Test_bsp//newlib/nios2-elf/lib/libc.a(lib_a-findfp.o)
                0x000000000002bd40                __sinit_lock_acquire
 .text.__sinit_lock_release
                0x000000000002bd60       0x20 ../D8M_Camera_Test_bsp//newlib/nios2-elf/lib/libc.a(lib_a-findfp.o)
                0x000000000002bd60                __sinit_lock_release
 .text.__fp_lock
                0x000000000002bd80       0x24 ../D8M_Camera_Test_bsp//newlib/nios2-elf/lib/libc.a(lib_a-findfp.o)
 .text.__fp_unlock
                0x000000000002bda4       0x24 ../D8M_Camera_Test_bsp//newlib/nios2-elf/lib/libc.a(lib_a-findfp.o)
 .text.__fp_lock_all
                0x000000000002bdc8       0x48 ../D8M_Camera_Test_bsp//newlib/nios2-elf/lib/libc.a(lib_a-findfp.o)
                0x000000000002bdc8                __fp_lock_all
 .text.__fp_unlock_all
                0x000000000002be10       0x48 ../D8M_Camera_Test_bsp//newlib/nios2-elf/lib/libc.a(lib_a-findfp.o)
                0x000000000002be10                __fp_unlock_all
 .text          0x000000000002be58        0x0 ../D8M_Camera_Test_bsp//newlib/nios2-elf/lib/libc.a(lib_a-freer.o)
 .text._free_r  0x000000000002be58      0x570 ../D8M_Camera_Test_bsp//newlib/nios2-elf/lib/libc.a(lib_a-freer.o)
                0x000000000002be58                _free_r
 .text._malloc_trim_r
                0x000000000002c3c8      0x1d0 ../D8M_Camera_Test_bsp//newlib/nios2-elf/lib/libc.a(lib_a-freer.o)
                0x000000000002c3c8                _malloc_trim_r
 .text          0x000000000002c598        0x0 ../D8M_Camera_Test_bsp//newlib/nios2-elf/lib/libc.a(lib_a-fvwrite.o)
 .text.__sfvwrite_r
                0x000000000002c598      0x5d0 ../D8M_Camera_Test_bsp//newlib/nios2-elf/lib/libc.a(lib_a-fvwrite.o)
                0x000000000002c598                __sfvwrite_r
 .text          0x000000000002cb68        0x0 ../D8M_Camera_Test_bsp//newlib/nios2-elf/lib/libc.a(lib_a-fwalk.o)
 .text._fwalk   0x000000000002cb68       0xd8 ../D8M_Camera_Test_bsp//newlib/nios2-elf/lib/libc.a(lib_a-fwalk.o)
                0x000000000002cb68                _fwalk
 .text._fwalk_reent
                0x000000000002cc40       0xdc ../D8M_Camera_Test_bsp//newlib/nios2-elf/lib/libc.a(lib_a-fwalk.o)
                0x000000000002cc40                _fwalk_reent
 .text          0x000000000002cd1c        0x0 ../D8M_Camera_Test_bsp//newlib/nios2-elf/lib/libc.a(lib_a-int_errno.o)
 .text          0x000000000002cd1c        0x0 ../D8M_Camera_Test_bsp//newlib/nios2-elf/lib/libc.a(lib_a-locale.o)
 .text._setlocale_r
                0x000000000002cd1c       0x84 ../D8M_Camera_Test_bsp//newlib/nios2-elf/lib/libc.a(lib_a-locale.o)
                0x000000000002cd1c                _setlocale_r
 .text.__locale_charset
                0x000000000002cda0       0x24 ../D8M_Camera_Test_bsp//newlib/nios2-elf/lib/libc.a(lib_a-locale.o)
                0x000000000002cda0                __locale_charset
 .text.__locale_mb_cur_max
                0x000000000002cdc4       0x20 ../D8M_Camera_Test_bsp//newlib/nios2-elf/lib/libc.a(lib_a-locale.o)
                0x000000000002cdc4                __locale_mb_cur_max
 .text.__locale_msgcharset
                0x000000000002cde4       0x24 ../D8M_Camera_Test_bsp//newlib/nios2-elf/lib/libc.a(lib_a-locale.o)
                0x000000000002cde4                __locale_msgcharset
 .text.__locale_cjk_lang
                0x000000000002ce08       0x20 ../D8M_Camera_Test_bsp//newlib/nios2-elf/lib/libc.a(lib_a-locale.o)
                0x000000000002ce08                __locale_cjk_lang
 .text._localeconv_r
                0x000000000002ce28       0x28 ../D8M_Camera_Test_bsp//newlib/nios2-elf/lib/libc.a(lib_a-locale.o)
                0x000000000002ce28                _localeconv_r
 .text.setlocale
                0x000000000002ce50       0x48 ../D8M_Camera_Test_bsp//newlib/nios2-elf/lib/libc.a(lib_a-locale.o)
                0x000000000002ce50                setlocale
 .text.localeconv
                0x000000000002ce98       0x38 ../D8M_Camera_Test_bsp//newlib/nios2-elf/lib/libc.a(lib_a-locale.o)
                0x000000000002ce98                localeconv
 .text          0x000000000002ced0        0x0 ../D8M_Camera_Test_bsp//newlib/nios2-elf/lib/libc.a(lib_a-makebuf.o)
 .text.__smakebuf_r
                0x000000000002ced0      0x22c ../D8M_Camera_Test_bsp//newlib/nios2-elf/lib/libc.a(lib_a-makebuf.o)
                0x000000000002ced0                __smakebuf_r
 .text          0x000000000002d0fc        0x0 ../D8M_Camera_Test_bsp//newlib/nios2-elf/lib/libc.a(lib_a-memchr.o)
 .text.memchr   0x000000000002d0fc      0x1bc ../D8M_Camera_Test_bsp//newlib/nios2-elf/lib/libc.a(lib_a-memchr.o)
                0x000000000002d0fc                memchr
 .text          0x000000000002d2b8        0x0 ../D8M_Camera_Test_bsp//newlib/nios2-elf/lib/libc.a(lib_a-memcpy.o)
 .text.memcpy   0x000000000002d2b8      0x188 ../D8M_Camera_Test_bsp//newlib/nios2-elf/lib/libc.a(lib_a-memcpy.o)
                0x000000000002d2b8                memcpy
 .text          0x000000000002d440        0x0 ../D8M_Camera_Test_bsp//newlib/nios2-elf/lib/libc.a(lib_a-memmove.o)
 .text.memmove  0x000000000002d440      0x208 ../D8M_Camera_Test_bsp//newlib/nios2-elf/lib/libc.a(lib_a-memmove.o)
                0x000000000002d440                memmove
 .text          0x000000000002d648        0x0 ../D8M_Camera_Test_bsp//newlib/nios2-elf/lib/libc.a(lib_a-mprec.o)
 .text._Balloc  0x000000000002d648      0x130 ../D8M_Camera_Test_bsp//newlib/nios2-elf/lib/libc.a(lib_a-mprec.o)
                0x000000000002d648                _Balloc
 .text._Bfree   0x000000000002d778       0x7c ../D8M_Camera_Test_bsp//newlib/nios2-elf/lib/libc.a(lib_a-mprec.o)
                0x000000000002d778                _Bfree
 .text.__multadd
                0x000000000002d7f4      0x194 ../D8M_Camera_Test_bsp//newlib/nios2-elf/lib/libc.a(lib_a-mprec.o)
                0x000000000002d7f4                __multadd
 .text.__s2b    0x000000000002d988      0x188 ../D8M_Camera_Test_bsp//newlib/nios2-elf/lib/libc.a(lib_a-mprec.o)
                0x000000000002d988                __s2b
 .text.__hi0bits
                0x000000000002db10       0x90 ../D8M_Camera_Test_bsp//newlib/nios2-elf/lib/libc.a(lib_a-mprec.o)
                0x000000000002db10                __hi0bits
 .text.__lo0bits
                0x000000000002dba0       0xec ../D8M_Camera_Test_bsp//newlib/nios2-elf/lib/libc.a(lib_a-mprec.o)
                0x000000000002dba0                __lo0bits
 .text.__i2b    0x000000000002dc8c       0x58 ../D8M_Camera_Test_bsp//newlib/nios2-elf/lib/libc.a(lib_a-mprec.o)
                0x000000000002dc8c                __i2b
 .text.__multiply
                0x000000000002dce4      0x3d0 ../D8M_Camera_Test_bsp//newlib/nios2-elf/lib/libc.a(lib_a-mprec.o)
                0x000000000002dce4                __multiply
 .text.__pow5mult
                0x000000000002e0b4      0x178 ../D8M_Camera_Test_bsp//newlib/nios2-elf/lib/libc.a(lib_a-mprec.o)
                0x000000000002e0b4                __pow5mult
 .text.__lshift
                0x000000000002e22c      0x1f8 ../D8M_Camera_Test_bsp//newlib/nios2-elf/lib/libc.a(lib_a-mprec.o)
                0x000000000002e22c                __lshift
 .text.__mcmp   0x000000000002e424      0x114 ../D8M_Camera_Test_bsp//newlib/nios2-elf/lib/libc.a(lib_a-mprec.o)
                0x000000000002e424                __mcmp
 .text.__mdiff  0x000000000002e538      0x2a4 ../D8M_Camera_Test_bsp//newlib/nios2-elf/lib/libc.a(lib_a-mprec.o)
                0x000000000002e538                __mdiff
 .text.__ulp    0x000000000002e7dc       0xcc ../D8M_Camera_Test_bsp//newlib/nios2-elf/lib/libc.a(lib_a-mprec.o)
                0x000000000002e7dc                __ulp
 .text.__b2d    0x000000000002e8a8      0x204 ../D8M_Camera_Test_bsp//newlib/nios2-elf/lib/libc.a(lib_a-mprec.o)
                0x000000000002e8a8                __b2d
 .text.__d2b    0x000000000002eaac      0x240 ../D8M_Camera_Test_bsp//newlib/nios2-elf/lib/libc.a(lib_a-mprec.o)
                0x000000000002eaac                __d2b
 .text.__ratio  0x000000000002ecec      0x11c ../D8M_Camera_Test_bsp//newlib/nios2-elf/lib/libc.a(lib_a-mprec.o)
                0x000000000002ecec                __ratio
 .text._mprec_log10
                0x000000000002ee08       0xb0 ../D8M_Camera_Test_bsp//newlib/nios2-elf/lib/libc.a(lib_a-mprec.o)
                0x000000000002ee08                _mprec_log10
 .text.__copybits
                0x000000000002eeb8       0xd0 ../D8M_Camera_Test_bsp//newlib/nios2-elf/lib/libc.a(lib_a-mprec.o)
                0x000000000002eeb8                __copybits
 .text.__any_on
                0x000000000002ef88      0x134 ../D8M_Camera_Test_bsp//newlib/nios2-elf/lib/libc.a(lib_a-mprec.o)
                0x000000000002ef88                __any_on
 .text          0x000000000002f0bc        0x0 ../D8M_Camera_Test_bsp//newlib/nios2-elf/lib/libc.a(lib_a-reallocr.o)
 .text._realloc_r
                0x000000000002f0bc      0xbf0 ../D8M_Camera_Test_bsp//newlib/nios2-elf/lib/libc.a(lib_a-reallocr.o)
                0x000000000002f0bc                _realloc_r
 .text          0x000000000002fcac        0x0 ../D8M_Camera_Test_bsp//newlib/nios2-elf/lib/libc.a(lib_a-refill.o)
 .text.lflush   0x000000000002fcac       0x50 ../D8M_Camera_Test_bsp//newlib/nios2-elf/lib/libc.a(lib_a-refill.o)
 .text.__srefill_r
                0x000000000002fcfc      0x25c ../D8M_Camera_Test_bsp//newlib/nios2-elf/lib/libc.a(lib_a-refill.o)
                0x000000000002fcfc                __srefill_r
 .text          0x000000000002ff58        0x0 ../D8M_Camera_Test_bsp//newlib/nios2-elf/lib/libc.a(lib_a-s_fpclassify.o)
 .text.__fpclassifyd
                0x000000000002ff58      0x104 ../D8M_Camera_Test_bsp//newlib/nios2-elf/lib/libc.a(lib_a-s_fpclassify.o)
                0x000000000002ff58                __fpclassifyd
 .text          0x000000000003005c        0x0 ../D8M_Camera_Test_bsp//newlib/nios2-elf/lib/libc.a(lib_a-stdio.o)
 .text.__sread  0x000000000003005c       0x9c ../D8M_Camera_Test_bsp//newlib/nios2-elf/lib/libc.a(lib_a-stdio.o)
                0x000000000003005c                __sread
 .text.__seofread
                0x00000000000300f8       0x30 ../D8M_Camera_Test_bsp//newlib/nios2-elf/lib/libc.a(lib_a-stdio.o)
                0x00000000000300f8                __seofread
 .text.__swrite
                0x0000000000030128       0xb4 ../D8M_Camera_Test_bsp//newlib/nios2-elf/lib/libc.a(lib_a-stdio.o)
                0x0000000000030128                __swrite
 .text.__sseek  0x00000000000301dc       0xa0 ../D8M_Camera_Test_bsp//newlib/nios2-elf/lib/libc.a(lib_a-stdio.o)
                0x00000000000301dc                __sseek
 .text.__sclose
                0x000000000003027c       0x54 ../D8M_Camera_Test_bsp//newlib/nios2-elf/lib/libc.a(lib_a-stdio.o)
                0x000000000003027c                __sclose
 .text          0x00000000000302d0        0x0 ../D8M_Camera_Test_bsp//newlib/nios2-elf/lib/libc.a(lib_a-strcmp.o)
 .text.strcmp   0x00000000000302d0      0x140 ../D8M_Camera_Test_bsp//newlib/nios2-elf/lib/libc.a(lib_a-strcmp.o)
                0x00000000000302d0                strcmp
 .text          0x0000000000030410        0x0 ../D8M_Camera_Test_bsp//newlib/nios2-elf/lib/libc.a(lib_a-vfiprintf.o)
 .text.__sprint_r
                0x0000000000030410      0x13c ../D8M_Camera_Test_bsp//newlib/nios2-elf/lib/libc.a(lib_a-vfiprintf.o)
                0x0000000000030410                __sprint_r
 .text.__sbprintf
                0x000000000003054c       0xf0 ../D8M_Camera_Test_bsp//newlib/nios2-elf/lib/libc.a(lib_a-vfiprintf.o)
 .text.__vfiprintf_internal
                0x000000000003063c       0x58 ../D8M_Camera_Test_bsp//newlib/nios2-elf/lib/libc.a(lib_a-vfiprintf.o)
                0x000000000003063c                __vfiprintf_internal
 .text.___vfiprintf_internal_r
                0x0000000000030694     0x12c4 ../D8M_Camera_Test_bsp//newlib/nios2-elf/lib/libc.a(lib_a-vfiprintf.o)
                0x0000000000030694                ___vfiprintf_internal_r
 .text          0x0000000000031958        0x0 ../D8M_Camera_Test_bsp//newlib/nios2-elf/lib/libc.a(lib_a-writer.o)
 .text._write_r
                0x0000000000031958       0x88 ../D8M_Camera_Test_bsp//newlib/nios2-elf/lib/libc.a(lib_a-writer.o)
                0x0000000000031958                _write_r
 .text          0x00000000000319e0        0x0 ../D8M_Camera_Test_bsp//newlib/nios2-elf/lib/libc.a(closer.o)
 .text._close_r
                0x00000000000319e0       0x78 ../D8M_Camera_Test_bsp//newlib/nios2-elf/lib/libc.a(closer.o)
                0x00000000000319e0                _close_r
 .text          0x0000000000031a58        0x0 ../D8M_Camera_Test_bsp//newlib/nios2-elf/lib/libc.a(lib_a-callocr.o)
 .text._calloc_r
                0x0000000000031a58      0x164 ../D8M_Camera_Test_bsp//newlib/nios2-elf/lib/libc.a(lib_a-callocr.o)
                0x0000000000031a58                _calloc_r
 .text          0x0000000000031bbc        0x0 ../D8M_Camera_Test_bsp//newlib/nios2-elf/lib/libc.a(lib_a-fclose.o)
 .text._fclose_r
                0x0000000000031bbc      0x12c ../D8M_Camera_Test_bsp//newlib/nios2-elf/lib/libc.a(lib_a-fclose.o)
                0x0000000000031bbc                _fclose_r
 .text.fclose   0x0000000000031ce8       0x40 ../D8M_Camera_Test_bsp//newlib/nios2-elf/lib/libc.a(lib_a-fclose.o)
                0x0000000000031ce8                fclose
 .text          0x0000000000031d28        0x0 ../D8M_Camera_Test_bsp//newlib/nios2-elf/lib/libc.a(lib_a-fputwc.o)
 .text.__fputwc
                0x0000000000031d28      0x1f4 ../D8M_Camera_Test_bsp//newlib/nios2-elf/lib/libc.a(lib_a-fputwc.o)
                0x0000000000031d28                __fputwc
 .text._fputwc_r
                0x0000000000031f1c       0x88 ../D8M_Camera_Test_bsp//newlib/nios2-elf/lib/libc.a(lib_a-fputwc.o)
                0x0000000000031f1c                _fputwc_r
 .text.fputwc   0x0000000000031fa4       0x70 ../D8M_Camera_Test_bsp//newlib/nios2-elf/lib/libc.a(lib_a-fputwc.o)
                0x0000000000031fa4                fputwc
 .text          0x0000000000032014        0x0 ../D8M_Camera_Test_bsp//newlib/nios2-elf/lib/libc.a(lib_a-fstatr.o)
 .text._fstat_r
                0x0000000000032014       0x80 ../D8M_Camera_Test_bsp//newlib/nios2-elf/lib/libc.a(lib_a-fstatr.o)
                0x0000000000032014                _fstat_r
 .text          0x0000000000032094        0x0 ../D8M_Camera_Test_bsp//newlib/nios2-elf/lib/libc.a(lib_a-isattyr.o)
 .text._isatty_r
                0x0000000000032094       0x78 ../D8M_Camera_Test_bsp//newlib/nios2-elf/lib/libc.a(lib_a-isattyr.o)
                0x0000000000032094                _isatty_r
 .text          0x000000000003210c        0x0 ../D8M_Camera_Test_bsp//newlib/nios2-elf/lib/libc.a(lib_a-lseekr.o)
 .text._lseek_r
                0x000000000003210c       0x88 ../D8M_Camera_Test_bsp//newlib/nios2-elf/lib/libc.a(lib_a-lseekr.o)
                0x000000000003210c                _lseek_r
 .text          0x0000000000032194        0x0 ../D8M_Camera_Test_bsp//newlib/nios2-elf/lib/libc.a(lib_a-readr.o)
 .text._read_r  0x0000000000032194       0x88 ../D8M_Camera_Test_bsp//newlib/nios2-elf/lib/libc.a(lib_a-readr.o)
                0x0000000000032194                _read_r
 .text          0x000000000003221c        0x0 ../D8M_Camera_Test_bsp//newlib/nios2-elf/lib/libc.a(lib_a-wcrtomb.o)
 .text._wcrtomb_r
                0x000000000003221c       0xe4 ../D8M_Camera_Test_bsp//newlib/nios2-elf/lib/libc.a(lib_a-wcrtomb.o)
                0x000000000003221c                _wcrtomb_r
 .text.wcrtomb  0x0000000000032300       0xf0 ../D8M_Camera_Test_bsp//newlib/nios2-elf/lib/libc.a(lib_a-wcrtomb.o)
                0x0000000000032300                wcrtomb
 .text          0x00000000000323f0        0x0 ../D8M_Camera_Test_bsp//newlib/nios2-elf/lib/libc.a(lib_a-wctomb_r.o)
 .text._wctomb_r
                0x00000000000323f0       0x64 ../D8M_Camera_Test_bsp//newlib/nios2-elf/lib/libc.a(lib_a-wctomb_r.o)
                0x00000000000323f0                _wctomb_r
 .text.__ascii_wctomb
                0x0000000000032454       0x78 ../D8M_Camera_Test_bsp//newlib/nios2-elf/lib/libc.a(lib_a-wctomb_r.o)
                0x0000000000032454                __ascii_wctomb
 .text          0x00000000000324cc      0x578 /home/georgech/intelFPGA_lite/16.1/nios2eds/bin/gnu/H-x86_64-pc-linux-gnu/bin/../lib/gcc/nios2-elf/5.3.0/libgcc.a(_udivdi3.o)
                0x00000000000324cc                __udivdi3
 .text          0x0000000000032a44      0x538 /home/georgech/intelFPGA_lite/16.1/nios2eds/bin/gnu/H-x86_64-pc-linux-gnu/bin/../lib/gcc/nios2-elf/5.3.0/libgcc.a(_umoddi3.o)
                0x0000000000032a44                __umoddi3
 .text          0x0000000000032f7c      0x1b4 /home/georgech/intelFPGA_lite/16.1/nios2eds/bin/gnu/H-x86_64-pc-linux-gnu/bin/../lib/gcc/nios2-elf/5.3.0/libgcc.a(lib2-divmod.o)
                0x0000000000032f7c                __divsi3
                0x0000000000033000                __modsi3
                0x0000000000033074                __udivsi3
                0x00000000000330d8                __umodsi3
 .text          0x0000000000033130      0x8e8 /home/georgech/intelFPGA_lite/16.1/nios2eds/bin/gnu/H-x86_64-pc-linux-gnu/bin/../lib/gcc/nios2-elf/5.3.0/libgcc.a(divdf3.o)
                0x0000000000033130                __divdf3
 .text          0x0000000000033a18       0x88 /home/georgech/intelFPGA_lite/16.1/nios2eds/bin/gnu/H-x86_64-pc-linux-gnu/bin/../lib/gcc/nios2-elf/5.3.0/libgcc.a(eqdf2.o)
                0x0000000000033a18                __eqdf2
                0x0000000000033a18                __nedf2
 .text          0x0000000000033aa0       0xdc /home/georgech/intelFPGA_lite/16.1/nios2eds/bin/gnu/H-x86_64-pc-linux-gnu/bin/../lib/gcc/nios2-elf/5.3.0/libgcc.a(gedf2.o)
                0x0000000000033aa0                __gtdf2
                0x0000000000033aa0                __gedf2
 .text          0x0000000000033b7c       0xf4 /home/georgech/intelFPGA_lite/16.1/nios2eds/bin/gnu/H-x86_64-pc-linux-gnu/bin/../lib/gcc/nios2-elf/5.3.0/libgcc.a(ledf2.o)
                0x0000000000033b7c                __ltdf2
                0x0000000000033b7c                __ledf2
 .text          0x0000000000033c70      0x8fc /home/georgech/intelFPGA_lite/16.1/nios2eds/bin/gnu/H-x86_64-pc-linux-gnu/bin/../lib/gcc/nios2-elf/5.3.0/libgcc.a(subdf3.o)
                0x0000000000033c70                __subdf3
 .text          0x000000000003456c       0x80 /home/georgech/intelFPGA_lite/16.1/nios2eds/bin/gnu/H-x86_64-pc-linux-gnu/bin/../lib/gcc/nios2-elf/5.3.0/libgcc.a(fixdfsi.o)
                0x000000000003456c                __fixdfsi
 .text          0x00000000000345ec       0xa8 /home/georgech/intelFPGA_lite/16.1/nios2eds/bin/gnu/H-x86_64-pc-linux-gnu/bin/../lib/gcc/nios2-elf/5.3.0/libgcc.a(floatunsidf.o)
                0x00000000000345ec                __floatunsidf
 .text          0x0000000000034694       0xd4 ../D8M_Camera_Test_bsp//libhal_bsp.a(alt_close.o)
                0x0000000000034694                close
 .text          0x0000000000034768        0x8 ../D8M_Camera_Test_bsp//libhal_bsp.a(alt_dev.o)
 .text          0x0000000000034770        0x0 ../D8M_Camera_Test_bsp//libhal_bsp.a(alt_errno.o)
 .text          0x0000000000034770       0xe8 ../D8M_Camera_Test_bsp//libhal_bsp.a(alt_fcntl.o)
                0x0000000000034770                fcntl
 .text          0x0000000000034858       0x84 ../D8M_Camera_Test_bsp//libhal_bsp.a(alt_fstat.o)
                0x0000000000034858                fstat
 .text          0x00000000000348dc       0x90 ../D8M_Camera_Test_bsp//libhal_bsp.a(alt_isatty.o)
                0x00000000000348dc                isatty
 .text          0x000000000003496c       0xcc ../D8M_Camera_Test_bsp//libhal_bsp.a(alt_load.o)
                0x000000000003496c                alt_load
 .text          0x0000000000034a38       0x88 ../D8M_Camera_Test_bsp//libhal_bsp.a(alt_lseek.o)
                0x0000000000034a38                lseek
 .text          0x0000000000034ac0       0x64 ../D8M_Camera_Test_bsp//libhal_bsp.a(alt_main.o)
                0x0000000000034ac0                alt_main
 .text          0x0000000000034b24        0x8 ../D8M_Camera_Test_bsp//libhal_bsp.a(alt_malloc_lock.o)
                0x0000000000034b24                __malloc_lock
                0x0000000000034b28                __malloc_unlock
 .text          0x0000000000034b2c       0xec ../D8M_Camera_Test_bsp//libhal_bsp.a(alt_read.o)
                0x0000000000034b2c                read
 .text          0x0000000000034c18       0x24 ../D8M_Camera_Test_bsp//libhal_bsp.a(alt_release_fd.o)
                0x0000000000034c18                alt_release_fd
 .text          0x0000000000034c3c       0x4c ../D8M_Camera_Test_bsp//libhal_bsp.a(alt_sbrk.o)
                0x0000000000034c3c                sbrk
 .text          0x0000000000034c88      0x128 ../D8M_Camera_Test_bsp//libhal_bsp.a(alt_tick.o)
                0x0000000000034c88                alt_alarm_stop
                0x0000000000034cbc                alt_tick
 .text          0x0000000000034db0        0x4 ../D8M_Camera_Test_bsp//libhal_bsp.a(alt_usleep.o)
                0x0000000000034db0                usleep
 .text          0x0000000000034db4       0xe8 ../D8M_Camera_Test_bsp//libhal_bsp.a(alt_write.o)
                0x0000000000034db4                write
 .text          0x0000000000034e9c       0xb0 ../D8M_Camera_Test_bsp//libhal_bsp.a(alt_sys_init.o)
                0x0000000000034e9c                alt_irq_init
                0x0000000000034ebc                alt_sys_init
 .text          0x0000000000034f4c       0x3c ../D8M_Camera_Test_bsp//libhal_bsp.a(altera_avalon_jtag_uart_fd.o)
                0x0000000000034f4c                altera_avalon_jtag_uart_read_fd
                0x0000000000034f5c                altera_avalon_jtag_uart_write_fd
                0x0000000000034f6c                altera_avalon_jtag_uart_close_fd
                0x0000000000034f7c                altera_avalon_jtag_uart_ioctl_fd
 .text          0x0000000000034f88      0x230 ../D8M_Camera_Test_bsp//libhal_bsp.a(altera_avalon_jtag_uart_init.o)
                0x00000000000350ec                altera_avalon_jtag_uart_init
                0x000000000003516c                altera_avalon_jtag_uart_close
 .text          0x00000000000351b8       0x74 ../D8M_Camera_Test_bsp//libhal_bsp.a(altera_avalon_jtag_uart_ioctl.o)
                0x00000000000351b8                altera_avalon_jtag_uart_ioctl
 .text          0x000000000003522c      0x154 ../D8M_Camera_Test_bsp//libhal_bsp.a(altera_avalon_jtag_uart_read.o)
                0x000000000003522c                altera_avalon_jtag_uart_read
 .text          0x0000000000035380      0x1a0 ../D8M_Camera_Test_bsp//libhal_bsp.a(altera_avalon_jtag_uart_write.o)
                0x0000000000035380                altera_avalon_jtag_uart_write
 .text          0x0000000000035520       0x8c ../D8M_Camera_Test_bsp//libhal_bsp.a(altera_avalon_timer_sc.o)
                0x000000000003555c                alt_avalon_timer_sc_init
 .text          0x00000000000355ac       0x30 ../D8M_Camera_Test_bsp//libhal_bsp.a(altera_avalon_uart_fd.o)
                0x00000000000355ac                altera_avalon_uart_read_fd
                0x00000000000355bc                altera_avalon_uart_write_fd
                0x00000000000355cc                altera_avalon_uart_close_fd
 .text          0x00000000000355dc      0x1c0 ../D8M_Camera_Test_bsp//libhal_bsp.a(altera_avalon_uart_init.o)
                0x000000000003572c                altera_avalon_uart_init
                0x000000000003576c                altera_avalon_uart_close
 .text          0x000000000003579c      0x1c8 ../D8M_Camera_Test_bsp//libhal_bsp.a(altera_avalon_uart_read.o)
                0x000000000003579c                altera_avalon_uart_read
 .text          0x0000000000035964      0x108 ../D8M_Camera_Test_bsp//libhal_bsp.a(altera_avalon_uart_write.o)
                0x0000000000035964                altera_avalon_uart_write
 .text          0x0000000000035a6c       0x94 ../D8M_Camera_Test_bsp//libhal_bsp.a(alt_alarm_start.o)
                0x0000000000035a6c                alt_alarm_start
 .text          0x0000000000035b00       0x60 ../D8M_Camera_Test_bsp//libhal_bsp.a(alt_busy_sleep.o)
                0x0000000000035b00                alt_busy_sleep
 .text          0x0000000000035b60       0x18 ../D8M_Camera_Test_bsp//libhal_bsp.a(alt_dcache_flush_all.o)
                0x0000000000035b60                alt_dcache_flush_all
 .text          0x0000000000035b78       0x78 ../D8M_Camera_Test_bsp//libhal_bsp.a(alt_dev_llist_insert.o)
                0x0000000000035b78                alt_dev_llist_insert
 .text          0x0000000000035bf0       0x64 ../D8M_Camera_Test_bsp//libhal_bsp.a(alt_do_ctors.o)
                0x0000000000035bf0                _do_ctors
 .text          0x0000000000035c54       0x64 ../D8M_Camera_Test_bsp//libhal_bsp.a(alt_do_dtors.o)
                0x0000000000035c54                _do_dtors
 .text          0x0000000000035cb8        0xc ../D8M_Camera_Test_bsp//libhal_bsp.a(alt_icache_flush_all.o)
                0x0000000000035cb8                alt_icache_flush_all
 .text          0x0000000000035cc4       0x9c ../D8M_Camera_Test_bsp//libhal_bsp.a(alt_iic.o)
                0x0000000000035cc4                alt_ic_isr_register
                0x0000000000035cc8                alt_ic_irq_enable
                0x0000000000035d08                alt_ic_irq_disable
                0x0000000000035d48                alt_ic_irq_enabled
 .text          0x0000000000035d60       0x68 ../D8M_Camera_Test_bsp//libhal_bsp.a(alt_iic_isr_register.o)
                0x0000000000035d60                alt_iic_isr_register
 .text          0x0000000000035dc8      0x104 ../D8M_Camera_Test_bsp//libhal_bsp.a(alt_io_redirect.o)
                0x0000000000035dc8                alt_io_redirect
 .text          0x0000000000035ecc        0x0 ../D8M_Camera_Test_bsp//libhal_bsp.a(alt_irq_entry.o)
 .text          0x0000000000035ecc        0x0 ../D8M_Camera_Test_bsp//libhal_bsp.a(alt_irq_handler.o)
 .text          0x0000000000035ecc        0x0 ../D8M_Camera_Test_bsp//libhal_bsp.a(alt_irq_vars.o)
 .text          0x0000000000035ecc      0x190 ../D8M_Camera_Test_bsp//libhal_bsp.a(alt_open.o)
                0x0000000000035ecc                open
 .text          0x000000000003605c        0x8 ../D8M_Camera_Test_bsp//libhal_bsp.a(altera_nios2_gen2_irq.o)
                0x000000000003605c                altera_nios2_gen2_irq_init
 .text          0x0000000000036064        0x0 ../D8M_Camera_Test_bsp//libhal_bsp.a(alt_exception_entry.o)
 .text          0x0000000000036064       0x78 ../D8M_Camera_Test_bsp//libhal_bsp.a(alt_find_dev.o)
                0x0000000000036064                alt_find_dev
 .text          0x00000000000360dc       0xb0 ../D8M_Camera_Test_bsp//libhal_bsp.a(alt_find_file.o)
                0x00000000000360dc                alt_find_file
 .text          0x000000000003618c       0x58 ../D8M_Camera_Test_bsp//libhal_bsp.a(alt_get_fd.o)
                0x000000000003618c                alt_get_fd
 .text          0x00000000000361e4       0x50 ../D8M_Camera_Test_bsp//libhal_bsp.a(alt_icache_flush.o)
                0x00000000000361e4                alt_icache_flush
 .text          0x0000000000036234       0x74 ../D8M_Camera_Test_bsp//libhal_bsp.a(alt_instruction_exception_entry.o)
                0x0000000000036234                alt_exception_cause_generated_bad_addr
 .text          0x00000000000362a8        0x0 ../D8M_Camera_Test_bsp//newlib/nios2-elf/lib/libc.a(lib_a-atexit.o)
 .text.atexit   0x00000000000362a8       0x3c ../D8M_Camera_Test_bsp//newlib/nios2-elf/lib/libc.a(lib_a-atexit.o)
                0x00000000000362a8                atexit
 .text          0x00000000000362e4        0x0 ../D8M_Camera_Test_bsp//newlib/nios2-elf/lib/libc.a(lib_a-exit.o)
 .text.exit     0x00000000000362e4       0x60 ../D8M_Camera_Test_bsp//newlib/nios2-elf/lib/libc.a(lib_a-exit.o)
                0x00000000000362e4                exit
 .text          0x0000000000036344        0x0 ../D8M_Camera_Test_bsp//newlib/nios2-elf/lib/libc.a(lib_a-memcmp.o)
 .text.memcmp   0x0000000000036344      0x134 ../D8M_Camera_Test_bsp//newlib/nios2-elf/lib/libc.a(lib_a-memcmp.o)
                0x0000000000036344                memcmp
 .text          0x0000000000036478        0x0 ../D8M_Camera_Test_bsp//newlib/nios2-elf/lib/libc.a(lib_a-__atexit.o)
 .text.__register_exitproc
                0x0000000000036478      0x198 ../D8M_Camera_Test_bsp//newlib/nios2-elf/lib/libc.a(lib_a-__atexit.o)
                0x0000000000036478                __register_exitproc
 .text          0x0000000000036610        0x0 ../D8M_Camera_Test_bsp//newlib/nios2-elf/lib/libc.a(lib_a-__call_atexit.o)
 .text.__call_exitprocs
                0x0000000000036610      0x1fc ../D8M_Camera_Test_bsp//newlib/nios2-elf/lib/libc.a(lib_a-__call_atexit.o)
                0x0000000000036610                __call_exitprocs
 .text          0x000000000003680c       0x14 ../D8M_Camera_Test_bsp//libhal_bsp.a(alt_exit.o)
                0x000000000003680c                _exit
 *(.gnu.warning.*)
 *(.fini)
                [!provide]                        PROVIDE (__etext, ABSOLUTE (.))
                [!provide]                        PROVIDE (_etext, ABSOLUTE (.))
                [!provide]                        PROVIDE (etext, ABSOLUTE (.))
 *(.eh_frame_hdr)
                0x0000000000036820                . = ALIGN (0x4)
                [!provide]                        PROVIDE (__preinit_array_start, ABSOLUTE (.))
 *(.preinit_array)
                [!provide]                        PROVIDE (__preinit_array_end, ABSOLUTE (.))
                [!provide]                        PROVIDE (__init_array_start, ABSOLUTE (.))
 *(.init_array)
                [!provide]                        PROVIDE (__init_array_end, ABSOLUTE (.))
                [!provide]                        PROVIDE (__fini_array_start, ABSOLUTE (.))
 *(.fini_array)
                [!provide]                        PROVIDE (__fini_array_end, ABSOLUTE (.))
 *(.eh_frame)
 *(.gcc_except_table .gcc_except_table.*)
 *(.dynamic)
                0x0000000000036820                PROVIDE (__CTOR_LIST__, ABSOLUTE (.))
 *(.ctors)
 *(SORT(.ctors.*))
                0x0000000000036820                PROVIDE (__CTOR_END__, ABSOLUTE (.))
                0x0000000000036820                PROVIDE (__DTOR_LIST__, ABSOLUTE (.))
 *(.dtors)
 *(SORT(.dtors.*))
                0x0000000000036820                PROVIDE (__DTOR_END__, ABSOLUTE (.))
 *(.jcr)
                0x0000000000036820                . = ALIGN (0x4)

.rodata         0x0000000000036820      0xb50
                0x0000000000036820                PROVIDE (__ram_rodata_start, ABSOLUTE (.))
                0x0000000000036820                . = ALIGN (0x4)
 *(.rodata .rodata.* .gnu.linkonce.r.*)
 .rodata        0x0000000000036820       0x1d obj/default/1.o
 *fill*         0x000000000003683d        0x3 
 .rodata        0x0000000000036840      0x277 obj/default/I2C_core.o
 *fill*         0x0000000000036ab7        0x1 
 .rodata        0x0000000000036ab8       0x4e obj/default/auto_focus.o
 *fill*         0x0000000000036b06        0x2 
 .rodata        0x0000000000036b08      0x2bc obj/default/main.o
 .rodata        0x0000000000036dc4       0x62 obj/default/mipi_bridge_config.o
 *fill*         0x0000000000036e26        0x2 
 .rodata        0x0000000000036e28       0xa1 obj/default/mipi_camera_config.o
 *fill*         0x0000000000036ec9        0x3 
 .rodata        0x0000000000036ecc      0x13a obj/default/mipi_helpers.o
 .rodata        0x0000000000037006      0x100 /home/georgech/intelFPGA_lite/16.1/nios2eds/bin/gnu/H-x86_64-pc-linux-gnu/bin/../lib/gcc/nios2-elf/5.3.0/libgcc.a(_clz.o)
                0x0000000000037006                __clz_tab
 *fill*         0x0000000000037106        0x2 
 .rodata        0x0000000000037108        0x2 ../D8M_Camera_Test_bsp//newlib/nios2-elf/lib/libc.a(lib_a-impure.o)
 *fill*         0x000000000003710a        0x2 
 .rodata        0x000000000003710c        0x2 ../D8M_Camera_Test_bsp//newlib/nios2-elf/lib/libc.a(lib_a-puts.o)
 *fill*         0x000000000003710e        0x2 
 .rodata        0x0000000000037110       0x5e ../D8M_Camera_Test_bsp//newlib/nios2-elf/lib/libc.a(lib_a-vfprintf.o)
 .rodata.blanks.4403
                0x000000000003716e       0x10 ../D8M_Camera_Test_bsp//newlib/nios2-elf/lib/libc.a(lib_a-vfprintf.o)
 .rodata.zeroes.4404
                0x000000000003717e       0x10 ../D8M_Camera_Test_bsp//newlib/nios2-elf/lib/libc.a(lib_a-vfprintf.o)
 *fill*         0x000000000003718e        0x2 
 .rodata        0x0000000000037190       0x12 ../D8M_Camera_Test_bsp//newlib/nios2-elf/lib/libc.a(lib_a-dtoa.o)
 *fill*         0x00000000000371a2        0x2 
 .rodata        0x00000000000371a4       0x12 ../D8M_Camera_Test_bsp//newlib/nios2-elf/lib/libc.a(lib_a-locale.o)
 *fill*         0x00000000000371b6        0x2 
 .rodata.__mprec_tens
                0x00000000000371b8       0xc8 ../D8M_Camera_Test_bsp//newlib/nios2-elf/lib/libc.a(lib_a-mprec.o)
                0x00000000000371b8                __mprec_tens
 .rodata.__mprec_bigtens
                0x0000000000037280       0x28 ../D8M_Camera_Test_bsp//newlib/nios2-elf/lib/libc.a(lib_a-mprec.o)
                0x0000000000037280                __mprec_bigtens
 .rodata.__mprec_tinytens
                0x00000000000372a8       0x28 ../D8M_Camera_Test_bsp//newlib/nios2-elf/lib/libc.a(lib_a-mprec.o)
                0x00000000000372a8                __mprec_tinytens
 .rodata.p05.2768
                0x00000000000372d0        0xc ../D8M_Camera_Test_bsp//newlib/nios2-elf/lib/libc.a(lib_a-mprec.o)
 .rodata        0x00000000000372dc       0x4a ../D8M_Camera_Test_bsp//newlib/nios2-elf/lib/libc.a(lib_a-vfiprintf.o)
 .rodata.blanks.4348
                0x0000000000037326       0x10 ../D8M_Camera_Test_bsp//newlib/nios2-elf/lib/libc.a(lib_a-vfiprintf.o)
 .rodata.zeroes.4349
                0x0000000000037336       0x10 ../D8M_Camera_Test_bsp//newlib/nios2-elf/lib/libc.a(lib_a-vfiprintf.o)
 *fill*         0x0000000000037346        0x2 
 .rodata.str1.4
                0x0000000000037348        0xa ../D8M_Camera_Test_bsp//libhal_bsp.a(alt_dev.o)
 *fill*         0x0000000000037352        0x2 
 .rodata.str1.4
                0x0000000000037354       0x1c ../D8M_Camera_Test_bsp//libhal_bsp.a(alt_main.o)
 .rodata.str1.4
                0x0000000000037370       0x1b ../D8M_Camera_Test_bsp//libhal_bsp.a(alt_sys_init.o)
 *(.rodata1)
                0x000000000003738c                . = ALIGN (0x4)
                0x000000000003738c                PROVIDE (__ram_rodata_end, ABSOLUTE (.))
                0x0000000000036820                PROVIDE (__flash_rodata_start, LOADADDR (.rodata))

.rwdata         0x0000000000037370     0x236c load address 0x00000000000396dc
                0x0000000000037370                PROVIDE (__ram_rwdata_start, ABSOLUTE (.))
                0x0000000000037370                . = ALIGN (0x4)
 *(.got.plt)
 *(.got)
 *(.data1)
 *(.data .data.* .gnu.linkonce.d.*)
 .data          0x0000000000037370        0x0 ../D8M_Camera_Test_bsp//obj/HAL/src/crt0.o
 .data          0x0000000000037370        0x0 obj/default/1.o
 .data          0x0000000000037370        0x0 obj/default/I2C_core.o
 .data          0x0000000000037370        0x0 obj/default/auto_focus.o
 .data          0x0000000000037370        0x0 obj/default/main.o
 .data          0x0000000000037370       0x34 obj/default/mipi_bridge_config.o
 .data          0x00000000000373a4      0x774 obj/default/mipi_camera_config.o
 .data          0x0000000000037b18        0x0 obj/default/mipi_helpers.o
 .data          0x0000000000037b18        0x0 obj/default/queue.o
 .data          0x0000000000037b18        0x0 /home/georgech/intelFPGA_lite/16.1/nios2eds/bin/gnu/H-x86_64-pc-linux-gnu/bin/../lib/gcc/nios2-elf/5.3.0/libgcc.a(adddf3.o)
 .data          0x0000000000037b18        0x0 /home/georgech/intelFPGA_lite/16.1/nios2eds/bin/gnu/H-x86_64-pc-linux-gnu/bin/../lib/gcc/nios2-elf/5.3.0/libgcc.a(muldf3.o)
 .data          0x0000000000037b18        0x0 /home/georgech/intelFPGA_lite/16.1/nios2eds/bin/gnu/H-x86_64-pc-linux-gnu/bin/../lib/gcc/nios2-elf/5.3.0/libgcc.a(floatsidf.o)
 .data          0x0000000000037b18        0x0 /home/georgech/intelFPGA_lite/16.1/nios2eds/bin/gnu/H-x86_64-pc-linux-gnu/bin/../lib/gcc/nios2-elf/5.3.0/libgcc.a(extendsfdf2.o)
 .data          0x0000000000037b18        0x0 /home/georgech/intelFPGA_lite/16.1/nios2eds/bin/gnu/H-x86_64-pc-linux-gnu/bin/../lib/gcc/nios2-elf/5.3.0/libgcc.a(truncdfsf2.o)
 .data          0x0000000000037b18        0x0 /home/georgech/intelFPGA_lite/16.1/nios2eds/bin/gnu/H-x86_64-pc-linux-gnu/bin/../lib/gcc/nios2-elf/5.3.0/libgcc.a(_clzsi2.o)
 .data          0x0000000000037b18        0x0 /home/georgech/intelFPGA_lite/16.1/nios2eds/bin/gnu/H-x86_64-pc-linux-gnu/bin/../lib/gcc/nios2-elf/5.3.0/libgcc.a(_clz.o)
 .data          0x0000000000037b18        0x0 ../D8M_Camera_Test_bsp//newlib/nios2-elf/lib/libc.a(lib_a-fprintf.o)
 .data          0x0000000000037b18        0x0 ../D8M_Camera_Test_bsp//newlib/nios2-elf/lib/libc.a(lib_a-fputc.o)
 .data          0x0000000000037b18        0x0 ../D8M_Camera_Test_bsp//newlib/nios2-elf/lib/libc.a(lib_a-fwrite.o)
 .data          0x0000000000037b18        0x0 ../D8M_Camera_Test_bsp//newlib/nios2-elf/lib/libc.a(lib_a-getc.o)
 .data          0x0000000000037b18        0x0 ../D8M_Camera_Test_bsp//newlib/nios2-elf/lib/libc.a(lib_a-impure.o)
 .data.impure_data
                0x0000000000037b18      0x424 ../D8M_Camera_Test_bsp//newlib/nios2-elf/lib/libc.a(lib_a-impure.o)
 .data          0x0000000000037f3c        0x0 ../D8M_Camera_Test_bsp//newlib/nios2-elf/lib/libc.a(lib_a-malloc.o)
 .data          0x0000000000037f3c        0x0 ../D8M_Camera_Test_bsp//newlib/nios2-elf/lib/libc.a(lib_a-mallocr.o)
 .data.__malloc_av_
                0x0000000000037f3c      0x408 ../D8M_Camera_Test_bsp//newlib/nios2-elf/lib/libc.a(lib_a-mallocr.o)
                0x0000000000037f3c                __malloc_av_
 .data          0x0000000000038344        0x0 ../D8M_Camera_Test_bsp//newlib/nios2-elf/lib/libc.a(lib_a-memset.o)
 .data          0x0000000000038344        0x0 ../D8M_Camera_Test_bsp//newlib/nios2-elf/lib/libc.a(lib_a-printf.o)
 .data          0x0000000000038344        0x0 ../D8M_Camera_Test_bsp//newlib/nios2-elf/lib/libc.a(lib_a-putc.o)
 .data          0x0000000000038344        0x0 ../D8M_Camera_Test_bsp//newlib/nios2-elf/lib/libc.a(lib_a-puts.o)
 .data          0x0000000000038344        0x0 ../D8M_Camera_Test_bsp//newlib/nios2-elf/lib/libc.a(lib_a-rget.o)
 .data          0x0000000000038344        0x0 ../D8M_Camera_Test_bsp//newlib/nios2-elf/lib/libc.a(lib_a-sbrkr.o)
 .data          0x0000000000038344        0x0 ../D8M_Camera_Test_bsp//newlib/nios2-elf/lib/libc.a(lib_a-strlen.o)
 .data          0x0000000000038344        0x0 ../D8M_Camera_Test_bsp//newlib/nios2-elf/lib/libc.a(lib_a-vfprintf.o)
 .data          0x0000000000038344        0x0 ../D8M_Camera_Test_bsp//newlib/nios2-elf/lib/libc.a(lib_a-wbuf.o)
 .data          0x0000000000038344        0x0 ../D8M_Camera_Test_bsp//newlib/nios2-elf/lib/libc.a(lib_a-wsetup.o)
 .data          0x0000000000038344        0x0 ../D8M_Camera_Test_bsp//newlib/nios2-elf/lib/libc.a(lib_a-dtoa.o)
 .data          0x0000000000038344        0x0 ../D8M_Camera_Test_bsp//newlib/nios2-elf/lib/libc.a(lib_a-fflush.o)
 .data          0x0000000000038344        0x0 ../D8M_Camera_Test_bsp//newlib/nios2-elf/lib/libc.a(lib_a-findfp.o)
 .data          0x0000000000038344        0x0 ../D8M_Camera_Test_bsp//newlib/nios2-elf/lib/libc.a(lib_a-freer.o)
 .data          0x0000000000038344        0x0 ../D8M_Camera_Test_bsp//newlib/nios2-elf/lib/libc.a(lib_a-fvwrite.o)
 .data          0x0000000000038344        0x0 ../D8M_Camera_Test_bsp//newlib/nios2-elf/lib/libc.a(lib_a-fwalk.o)
 .data          0x0000000000038344        0x0 ../D8M_Camera_Test_bsp//newlib/nios2-elf/lib/libc.a(lib_a-int_errno.o)
 .data          0x0000000000038344        0x0 ../D8M_Camera_Test_bsp//newlib/nios2-elf/lib/libc.a(lib_a-locale.o)
 .data.lconv    0x0000000000038344       0x38 ../D8M_Camera_Test_bsp//newlib/nios2-elf/lib/libc.a(lib_a-locale.o)
 .data.lc_ctype_charset
                0x000000000003837c       0x20 ../D8M_Camera_Test_bsp//newlib/nios2-elf/lib/libc.a(lib_a-locale.o)
 .data.lc_message_charset
                0x000000000003839c       0x20 ../D8M_Camera_Test_bsp//newlib/nios2-elf/lib/libc.a(lib_a-locale.o)
 .data          0x00000000000383bc        0x0 ../D8M_Camera_Test_bsp//newlib/nios2-elf/lib/libc.a(lib_a-makebuf.o)
 .data          0x00000000000383bc        0x0 ../D8M_Camera_Test_bsp//newlib/nios2-elf/lib/libc.a(lib_a-memchr.o)
 .data          0x00000000000383bc        0x0 ../D8M_Camera_Test_bsp//newlib/nios2-elf/lib/libc.a(lib_a-memcpy.o)
 .data          0x00000000000383bc        0x0 ../D8M_Camera_Test_bsp//newlib/nios2-elf/lib/libc.a(lib_a-memmove.o)
 .data          0x00000000000383bc        0x0 ../D8M_Camera_Test_bsp//newlib/nios2-elf/lib/libc.a(lib_a-mprec.o)
 .data          0x00000000000383bc        0x0 ../D8M_Camera_Test_bsp//newlib/nios2-elf/lib/libc.a(lib_a-reallocr.o)
 .data          0x00000000000383bc        0x0 ../D8M_Camera_Test_bsp//newlib/nios2-elf/lib/libc.a(lib_a-refill.o)
 .data          0x00000000000383bc        0x0 ../D8M_Camera_Test_bsp//newlib/nios2-elf/lib/libc.a(lib_a-s_fpclassify.o)
 .data          0x00000000000383bc        0x0 ../D8M_Camera_Test_bsp//newlib/nios2-elf/lib/libc.a(lib_a-stdio.o)
 .data          0x00000000000383bc        0x0 ../D8M_Camera_Test_bsp//newlib/nios2-elf/lib/libc.a(lib_a-strcmp.o)
 .data          0x00000000000383bc        0x0 ../D8M_Camera_Test_bsp//newlib/nios2-elf/lib/libc.a(lib_a-vfiprintf.o)
 .data          0x00000000000383bc        0x0 ../D8M_Camera_Test_bsp//newlib/nios2-elf/lib/libc.a(lib_a-writer.o)
 .data          0x00000000000383bc        0x0 ../D8M_Camera_Test_bsp//newlib/nios2-elf/lib/libc.a(closer.o)
 .data          0x00000000000383bc        0x0 ../D8M_Camera_Test_bsp//newlib/nios2-elf/lib/libc.a(lib_a-callocr.o)
 .data          0x00000000000383bc        0x0 ../D8M_Camera_Test_bsp//newlib/nios2-elf/lib/libc.a(lib_a-fclose.o)
 .data          0x00000000000383bc        0x0 ../D8M_Camera_Test_bsp//newlib/nios2-elf/lib/libc.a(lib_a-fputwc.o)
 .data          0x00000000000383bc        0x0 ../D8M_Camera_Test_bsp//newlib/nios2-elf/lib/libc.a(lib_a-fstatr.o)
 .data          0x00000000000383bc        0x0 ../D8M_Camera_Test_bsp//newlib/nios2-elf/lib/libc.a(lib_a-isattyr.o)
 .data          0x00000000000383bc        0x0 ../D8M_Camera_Test_bsp//newlib/nios2-elf/lib/libc.a(lib_a-lseekr.o)
 .data          0x00000000000383bc        0x0 ../D8M_Camera_Test_bsp//newlib/nios2-elf/lib/libc.a(lib_a-readr.o)
 .data          0x00000000000383bc        0x0 ../D8M_Camera_Test_bsp//newlib/nios2-elf/lib/libc.a(lib_a-wcrtomb.o)
 .data          0x00000000000383bc        0x0 ../D8M_Camera_Test_bsp//newlib/nios2-elf/lib/libc.a(lib_a-wctomb_r.o)
 .data          0x00000000000383bc        0x0 /home/georgech/intelFPGA_lite/16.1/nios2eds/bin/gnu/H-x86_64-pc-linux-gnu/bin/../lib/gcc/nios2-elf/5.3.0/libgcc.a(_udivdi3.o)
 .data          0x00000000000383bc        0x0 /home/georgech/intelFPGA_lite/16.1/nios2eds/bin/gnu/H-x86_64-pc-linux-gnu/bin/../lib/gcc/nios2-elf/5.3.0/libgcc.a(_umoddi3.o)
 .data          0x00000000000383bc        0x0 /home/georgech/intelFPGA_lite/16.1/nios2eds/bin/gnu/H-x86_64-pc-linux-gnu/bin/../lib/gcc/nios2-elf/5.3.0/libgcc.a(lib2-divmod.o)
 .data          0x00000000000383bc        0x0 /home/georgech/intelFPGA_lite/16.1/nios2eds/bin/gnu/H-x86_64-pc-linux-gnu/bin/../lib/gcc/nios2-elf/5.3.0/libgcc.a(divdf3.o)
 .data          0x00000000000383bc        0x0 /home/georgech/intelFPGA_lite/16.1/nios2eds/bin/gnu/H-x86_64-pc-linux-gnu/bin/../lib/gcc/nios2-elf/5.3.0/libgcc.a(eqdf2.o)
 .data          0x00000000000383bc        0x0 /home/georgech/intelFPGA_lite/16.1/nios2eds/bin/gnu/H-x86_64-pc-linux-gnu/bin/../lib/gcc/nios2-elf/5.3.0/libgcc.a(gedf2.o)
 .data          0x00000000000383bc        0x0 /home/georgech/intelFPGA_lite/16.1/nios2eds/bin/gnu/H-x86_64-pc-linux-gnu/bin/../lib/gcc/nios2-elf/5.3.0/libgcc.a(ledf2.o)
 .data          0x00000000000383bc        0x0 /home/georgech/intelFPGA_lite/16.1/nios2eds/bin/gnu/H-x86_64-pc-linux-gnu/bin/../lib/gcc/nios2-elf/5.3.0/libgcc.a(subdf3.o)
 .data          0x00000000000383bc        0x0 /home/georgech/intelFPGA_lite/16.1/nios2eds/bin/gnu/H-x86_64-pc-linux-gnu/bin/../lib/gcc/nios2-elf/5.3.0/libgcc.a(fixdfsi.o)
 .data          0x00000000000383bc        0x0 /home/georgech/intelFPGA_lite/16.1/nios2eds/bin/gnu/H-x86_64-pc-linux-gnu/bin/../lib/gcc/nios2-elf/5.3.0/libgcc.a(floatunsidf.o)
 .data          0x00000000000383bc        0x0 ../D8M_Camera_Test_bsp//libhal_bsp.a(alt_close.o)
 .data          0x00000000000383bc      0x1a8 ../D8M_Camera_Test_bsp//libhal_bsp.a(alt_dev.o)
                0x00000000000383bc                alt_fd_list
                0x000000000003853c                alt_dev_null
 .data          0x0000000000038564        0x0 ../D8M_Camera_Test_bsp//libhal_bsp.a(alt_errno.o)
 .data          0x0000000000038564        0x0 ../D8M_Camera_Test_bsp//libhal_bsp.a(alt_fcntl.o)
 .data          0x0000000000038564        0x0 ../D8M_Camera_Test_bsp//libhal_bsp.a(alt_fstat.o)
 .data          0x0000000000038564        0x0 ../D8M_Camera_Test_bsp//libhal_bsp.a(alt_isatty.o)
 .data          0x0000000000038564        0x0 ../D8M_Camera_Test_bsp//libhal_bsp.a(alt_load.o)
 .data          0x0000000000038564        0x0 ../D8M_Camera_Test_bsp//libhal_bsp.a(alt_lseek.o)
 .data          0x0000000000038564        0x0 ../D8M_Camera_Test_bsp//libhal_bsp.a(alt_main.o)
 .data          0x0000000000038564        0x0 ../D8M_Camera_Test_bsp//libhal_bsp.a(alt_malloc_lock.o)
 .data          0x0000000000038564        0x0 ../D8M_Camera_Test_bsp//libhal_bsp.a(alt_read.o)
 .data          0x0000000000038564        0x0 ../D8M_Camera_Test_bsp//libhal_bsp.a(alt_release_fd.o)
 .data          0x0000000000038564        0x0 ../D8M_Camera_Test_bsp//libhal_bsp.a(alt_sbrk.o)
 .data          0x0000000000038564        0x0 ../D8M_Camera_Test_bsp//libhal_bsp.a(alt_tick.o)
 .data          0x0000000000038564        0x0 ../D8M_Camera_Test_bsp//libhal_bsp.a(alt_usleep.o)
 .data          0x0000000000038564        0x0 ../D8M_Camera_Test_bsp//libhal_bsp.a(alt_write.o)
 .data          0x0000000000038564     0x1124 ../D8M_Camera_Test_bsp//libhal_bsp.a(alt_sys_init.o)
 .data          0x0000000000039688        0x0 ../D8M_Camera_Test_bsp//libhal_bsp.a(altera_avalon_jtag_uart_fd.o)
 .data          0x0000000000039688        0x0 ../D8M_Camera_Test_bsp//libhal_bsp.a(altera_avalon_jtag_uart_init.o)
 .data          0x0000000000039688        0x0 ../D8M_Camera_Test_bsp//libhal_bsp.a(altera_avalon_jtag_uart_ioctl.o)
 .data          0x0000000000039688        0x0 ../D8M_Camera_Test_bsp//libhal_bsp.a(altera_avalon_jtag_uart_read.o)
 .data          0x0000000000039688        0x0 ../D8M_Camera_Test_bsp//libhal_bsp.a(altera_avalon_jtag_uart_write.o)
 .data          0x0000000000039688        0x0 ../D8M_Camera_Test_bsp//libhal_bsp.a(altera_avalon_timer_sc.o)
 .data          0x0000000000039688        0x0 ../D8M_Camera_Test_bsp//libhal_bsp.a(altera_avalon_uart_fd.o)
 .data          0x0000000000039688        0x0 ../D8M_Camera_Test_bsp//libhal_bsp.a(altera_avalon_uart_init.o)
 .data          0x0000000000039688        0x0 ../D8M_Camera_Test_bsp//libhal_bsp.a(altera_avalon_uart_read.o)
 .data          0x0000000000039688        0x0 ../D8M_Camera_Test_bsp//libhal_bsp.a(altera_avalon_uart_write.o)
 .data          0x0000000000039688        0x0 ../D8M_Camera_Test_bsp//libhal_bsp.a(alt_alarm_start.o)
 .data          0x0000000000039688        0x0 ../D8M_Camera_Test_bsp//libhal_bsp.a(alt_busy_sleep.o)
 .data          0x0000000000039688        0x0 ../D8M_Camera_Test_bsp//libhal_bsp.a(alt_dcache_flush_all.o)
 .data          0x0000000000039688        0x0 ../D8M_Camera_Test_bsp//libhal_bsp.a(alt_dev_llist_insert.o)
 .data          0x0000000000039688        0x0 ../D8M_Camera_Test_bsp//libhal_bsp.a(alt_do_ctors.o)
 .data          0x0000000000039688        0x0 ../D8M_Camera_Test_bsp//libhal_bsp.a(alt_do_dtors.o)
 .data          0x0000000000039688        0x0 ../D8M_Camera_Test_bsp//libhal_bsp.a(alt_icache_flush_all.o)
 .data          0x0000000000039688        0x0 ../D8M_Camera_Test_bsp//libhal_bsp.a(alt_iic.o)
 .data          0x0000000000039688        0x0 ../D8M_Camera_Test_bsp//libhal_bsp.a(alt_iic_isr_register.o)
 .data          0x0000000000039688        0x0 ../D8M_Camera_Test_bsp//libhal_bsp.a(alt_io_redirect.o)
 .data          0x0000000000039688        0x0 ../D8M_Camera_Test_bsp//libhal_bsp.a(alt_irq_entry.o)
 .data          0x0000000000039688        0x0 ../D8M_Camera_Test_bsp//libhal_bsp.a(alt_irq_handler.o)
 .data          0x0000000000039688        0x0 ../D8M_Camera_Test_bsp//libhal_bsp.a(alt_irq_vars.o)
 .data          0x0000000000039688        0x0 ../D8M_Camera_Test_bsp//libhal_bsp.a(alt_open.o)
 .data          0x0000000000039688        0x0 ../D8M_Camera_Test_bsp//libhal_bsp.a(altera_nios2_gen2_irq.o)
 .data          0x0000000000039688        0x0 ../D8M_Camera_Test_bsp//libhal_bsp.a(alt_exception_entry.o)
 .data          0x0000000000039688        0x0 ../D8M_Camera_Test_bsp//libhal_bsp.a(alt_find_dev.o)
 .data          0x0000000000039688        0x0 ../D8M_Camera_Test_bsp//libhal_bsp.a(alt_find_file.o)
 .data          0x0000000000039688        0x0 ../D8M_Camera_Test_bsp//libhal_bsp.a(alt_get_fd.o)
 .data          0x0000000000039688        0x0 ../D8M_Camera_Test_bsp//libhal_bsp.a(alt_icache_flush.o)
 .data          0x0000000000039688        0x0 ../D8M_Camera_Test_bsp//libhal_bsp.a(alt_instruction_exception_entry.o)
 .data          0x0000000000039688        0x0 ../D8M_Camera_Test_bsp//newlib/nios2-elf/lib/libc.a(lib_a-atexit.o)
 .data          0x0000000000039688        0x0 ../D8M_Camera_Test_bsp//newlib/nios2-elf/lib/libc.a(lib_a-exit.o)
 .data          0x0000000000039688        0x0 ../D8M_Camera_Test_bsp//newlib/nios2-elf/lib/libc.a(lib_a-memcmp.o)
 .data          0x0000000000039688        0x0 ../D8M_Camera_Test_bsp//newlib/nios2-elf/lib/libc.a(lib_a-__atexit.o)
 .data          0x0000000000039688        0x0 ../D8M_Camera_Test_bsp//newlib/nios2-elf/lib/libc.a(lib_a-__call_atexit.o)
 .data          0x0000000000039688        0x0 ../D8M_Camera_Test_bsp//libhal_bsp.a(alt_exit.o)
                0x0000000000041688                _gp = ABSOLUTE ((. + 0x8000))
                [!provide]                        PROVIDE (gp, _gp)
 *(.rwdata .rwdata.*)
 *(.sdata .sdata.* .gnu.linkonce.s.*)
 .sdata         0x0000000000039688        0xb obj/default/auto_focus.o
                0x0000000000039688                video_w
                0x000000000003968a                video_h
                0x000000000003968c                focus_width
                0x000000000003968e                focus_height
                0x0000000000039690                focus_scal
                0x0000000000039691                focus_scal_f
                0x0000000000039692                focus_th
 *fill*         0x0000000000039693        0x1 
 .sdata         0x0000000000039694        0x8 obj/default/main.o
                0x0000000000039694                color
                0x0000000000039698                coords
 .sdata._impure_ptr
                0x000000000003969c        0x4 ../D8M_Camera_Test_bsp//newlib/nios2-elf/lib/libc.a(lib_a-impure.o)
                0x000000000003969c                _impure_ptr
 .sdata._global_impure_ptr
                0x00000000000396a0        0x4 ../D8M_Camera_Test_bsp//newlib/nios2-elf/lib/libc.a(lib_a-impure.o)
                0x00000000000396a0                _global_impure_ptr
 .sdata.__malloc_trim_threshold
                0x00000000000396a4        0x4 ../D8M_Camera_Test_bsp//newlib/nios2-elf/lib/libc.a(lib_a-mallocr.o)
                0x00000000000396a4                __malloc_trim_threshold
 .sdata.__malloc_sbrk_base
                0x00000000000396a8        0x4 ../D8M_Camera_Test_bsp//newlib/nios2-elf/lib/libc.a(lib_a-mallocr.o)
                0x00000000000396a8                __malloc_sbrk_base
 .sdata.__mb_cur_max
                0x00000000000396ac        0x4 ../D8M_Camera_Test_bsp//newlib/nios2-elf/lib/libc.a(lib_a-locale.o)
                0x00000000000396ac                __mb_cur_max
 .sdata.__wctomb
                0x00000000000396b0        0x4 ../D8M_Camera_Test_bsp//newlib/nios2-elf/lib/libc.a(lib_a-wctomb_r.o)
                0x00000000000396b0                __wctomb
 .sdata         0x00000000000396b4       0x14 ../D8M_Camera_Test_bsp//libhal_bsp.a(alt_dev.o)
                0x00000000000396b4                alt_max_fd
                0x00000000000396b8                alt_dev_list
                0x00000000000396c0                alt_fs_list
 .sdata         0x00000000000396c8        0x4 ../D8M_Camera_Test_bsp//libhal_bsp.a(alt_errno.o)
                0x00000000000396c8                alt_errno
 .sdata         0x00000000000396cc        0x4 ../D8M_Camera_Test_bsp//libhal_bsp.a(alt_sbrk.o)
 .sdata         0x00000000000396d0        0x8 ../D8M_Camera_Test_bsp//libhal_bsp.a(alt_tick.o)
                0x00000000000396d0                alt_alarm_list
 .sdata         0x00000000000396d8        0x4 ../D8M_Camera_Test_bsp//libhal_bsp.a(alt_irq_vars.o)
                0x00000000000396d8                alt_priority_mask
 *(.sdata2 .sdata2.* .gnu.linkonce.s2.*)
                0x00000000000396dc                . = ALIGN (0x4)
                0x00000000000396dc                _edata = ABSOLUTE (.)
                [!provide]                        PROVIDE (edata, ABSOLUTE (.))
                0x00000000000396dc                PROVIDE (__ram_rwdata_end, ABSOLUTE (.))
                0x00000000000396dc                PROVIDE (__flash_rwdata_start, LOADADDR (.rwdata))

.bss            0x000000000003ba48      0x170
                0x000000000003ba48                __bss_start = ABSOLUTE (.)
                [!provide]                        PROVIDE (__sbss_start, ABSOLUTE (.))
                [!provide]                        PROVIDE (___sbss_start, ABSOLUTE (.))
 *(.dynsbss)
 *(.sbss .sbss.* .gnu.linkonce.sb.*)
 .sbss.__malloc_top_pad
                0x000000000003ba48        0x4 ../D8M_Camera_Test_bsp//newlib/nios2-elf/lib/libc.a(lib_a-mallocr.o)
                0x000000000003ba48                __malloc_top_pad
 .sbss.__malloc_max_sbrked_mem
                0x000000000003ba4c        0x4 ../D8M_Camera_Test_bsp//newlib/nios2-elf/lib/libc.a(lib_a-mallocr.o)
                0x000000000003ba4c                __malloc_max_sbrked_mem
 .sbss.__malloc_max_total_mem
                0x000000000003ba50        0x4 ../D8M_Camera_Test_bsp//newlib/nios2-elf/lib/libc.a(lib_a-mallocr.o)
                0x000000000003ba50                __malloc_max_total_mem
 .sbss.__sfp_lock
                0x000000000003ba54        0x4 ../D8M_Camera_Test_bsp//newlib/nios2-elf/lib/libc.a(lib_a-findfp.o)
 .sbss.__sinit_lock
                0x000000000003ba58        0x4 ../D8M_Camera_Test_bsp//newlib/nios2-elf/lib/libc.a(lib_a-findfp.o)
 .sbss          0x000000000003ba5c        0x4 ../D8M_Camera_Test_bsp//newlib/nios2-elf/lib/libc.a(lib_a-int_errno.o)
                0x000000000003ba5c                errno
 .sbss.__nlocale_changed
                0x000000000003ba60        0x4 ../D8M_Camera_Test_bsp//newlib/nios2-elf/lib/libc.a(lib_a-locale.o)
                0x000000000003ba60                __nlocale_changed
 .sbss.__mlocale_changed
                0x000000000003ba64        0x4 ../D8M_Camera_Test_bsp//newlib/nios2-elf/lib/libc.a(lib_a-locale.o)
                0x000000000003ba64                __mlocale_changed
 .sbss._PathLocale
                0x000000000003ba68        0x4 ../D8M_Camera_Test_bsp//newlib/nios2-elf/lib/libc.a(lib_a-locale.o)
                0x000000000003ba68                _PathLocale
 .sbss.lc_ctype_cjk_lang
                0x000000000003ba6c        0x4 ../D8M_Camera_Test_bsp//newlib/nios2-elf/lib/libc.a(lib_a-locale.o)
 .sbss          0x000000000003ba70        0xc ../D8M_Camera_Test_bsp//libhal_bsp.a(alt_main.o)
                0x000000000003ba70                alt_envp
                0x000000000003ba74                alt_argv
                0x000000000003ba78                alt_argc
 .sbss          0x000000000003ba7c        0x8 ../D8M_Camera_Test_bsp//libhal_bsp.a(alt_tick.o)
                0x000000000003ba7c                _alt_nticks
                0x000000000003ba80                _alt_tick_rate
 .sbss          0x000000000003ba84        0x4 ../D8M_Camera_Test_bsp//libhal_bsp.a(alt_irq_vars.o)
                0x000000000003ba84                alt_irq_active
 .sbss          0x000000000003ba88        0x4 ../D8M_Camera_Test_bsp//libhal_bsp.a(alt_instruction_exception_entry.o)
                0x000000000003ba88                alt_instruction_exception_handler
 .sbss.__atexit_lock
                0x000000000003ba8c        0x4 ../D8M_Camera_Test_bsp//newlib/nios2-elf/lib/libc.a(lib_a-__call_atexit.o)
 *(.sbss2 .sbss2.* .gnu.linkonce.sb2.*)
 *(.scommon)
                [!provide]                        PROVIDE (__sbss_end, ABSOLUTE (.))
                [!provide]                        PROVIDE (___sbss_end, ABSOLUTE (.))
 *(.dynbss)
 *(.bss .bss.* .gnu.linkonce.b.*)
 .bss           0x000000000003ba90        0x0 ../D8M_Camera_Test_bsp//obj/HAL/src/crt0.o
 .bss           0x000000000003ba90        0x0 obj/default/1.o
 .bss           0x000000000003ba90        0x0 obj/default/I2C_core.o
 .bss           0x000000000003ba90        0x0 obj/default/auto_focus.o
 .bss           0x000000000003ba90        0x0 obj/default/main.o
 .bss           0x000000000003ba90        0x0 obj/default/mipi_bridge_config.o
 .bss           0x000000000003ba90        0x0 obj/default/mipi_camera_config.o
 .bss           0x000000000003ba90        0x0 obj/default/mipi_helpers.o
 .bss           0x000000000003ba90        0x0 obj/default/queue.o
 .bss           0x000000000003ba90        0x0 /home/georgech/intelFPGA_lite/16.1/nios2eds/bin/gnu/H-x86_64-pc-linux-gnu/bin/../lib/gcc/nios2-elf/5.3.0/libgcc.a(adddf3.o)
 .bss           0x000000000003ba90        0x0 /home/georgech/intelFPGA_lite/16.1/nios2eds/bin/gnu/H-x86_64-pc-linux-gnu/bin/../lib/gcc/nios2-elf/5.3.0/libgcc.a(muldf3.o)
 .bss           0x000000000003ba90        0x0 /home/georgech/intelFPGA_lite/16.1/nios2eds/bin/gnu/H-x86_64-pc-linux-gnu/bin/../lib/gcc/nios2-elf/5.3.0/libgcc.a(floatsidf.o)
 .bss           0x000000000003ba90        0x0 /home/georgech/intelFPGA_lite/16.1/nios2eds/bin/gnu/H-x86_64-pc-linux-gnu/bin/../lib/gcc/nios2-elf/5.3.0/libgcc.a(extendsfdf2.o)
 .bss           0x000000000003ba90        0x0 /home/georgech/intelFPGA_lite/16.1/nios2eds/bin/gnu/H-x86_64-pc-linux-gnu/bin/../lib/gcc/nios2-elf/5.3.0/libgcc.a(truncdfsf2.o)
 .bss           0x000000000003ba90        0x0 /home/georgech/intelFPGA_lite/16.1/nios2eds/bin/gnu/H-x86_64-pc-linux-gnu/bin/../lib/gcc/nios2-elf/5.3.0/libgcc.a(_clzsi2.o)
 .bss           0x000000000003ba90        0x0 /home/georgech/intelFPGA_lite/16.1/nios2eds/bin/gnu/H-x86_64-pc-linux-gnu/bin/../lib/gcc/nios2-elf/5.3.0/libgcc.a(_clz.o)
 .bss           0x000000000003ba90        0x0 ../D8M_Camera_Test_bsp//newlib/nios2-elf/lib/libc.a(lib_a-fprintf.o)
 .bss           0x000000000003ba90        0x0 ../D8M_Camera_Test_bsp//newlib/nios2-elf/lib/libc.a(lib_a-fputc.o)
 .bss           0x000000000003ba90        0x0 ../D8M_Camera_Test_bsp//newlib/nios2-elf/lib/libc.a(lib_a-fwrite.o)
 .bss           0x000000000003ba90        0x0 ../D8M_Camera_Test_bsp//newlib/nios2-elf/lib/libc.a(lib_a-getc.o)
 .bss           0x000000000003ba90        0x0 ../D8M_Camera_Test_bsp//newlib/nios2-elf/lib/libc.a(lib_a-impure.o)
 .bss           0x000000000003ba90        0x0 ../D8M_Camera_Test_bsp//newlib/nios2-elf/lib/libc.a(lib_a-malloc.o)
 .bss           0x000000000003ba90        0x0 ../D8M_Camera_Test_bsp//newlib/nios2-elf/lib/libc.a(lib_a-mallocr.o)
 .bss.__malloc_current_mallinfo
                0x000000000003ba90       0x28 ../D8M_Camera_Test_bsp//newlib/nios2-elf/lib/libc.a(lib_a-mallocr.o)
                0x000000000003ba90                __malloc_current_mallinfo
 .bss           0x000000000003bab8        0x0 ../D8M_Camera_Test_bsp//newlib/nios2-elf/lib/libc.a(lib_a-memset.o)
 .bss           0x000000000003bab8        0x0 ../D8M_Camera_Test_bsp//newlib/nios2-elf/lib/libc.a(lib_a-printf.o)
 .bss           0x000000000003bab8        0x0 ../D8M_Camera_Test_bsp//newlib/nios2-elf/lib/libc.a(lib_a-putc.o)
 .bss           0x000000000003bab8        0x0 ../D8M_Camera_Test_bsp//newlib/nios2-elf/lib/libc.a(lib_a-puts.o)
 .bss           0x000000000003bab8        0x0 ../D8M_Camera_Test_bsp//newlib/nios2-elf/lib/libc.a(lib_a-rget.o)
 .bss           0x000000000003bab8        0x0 ../D8M_Camera_Test_bsp//newlib/nios2-elf/lib/libc.a(lib_a-sbrkr.o)
 .bss           0x000000000003bab8        0x0 ../D8M_Camera_Test_bsp//newlib/nios2-elf/lib/libc.a(lib_a-strlen.o)
 .bss           0x000000000003bab8        0x0 ../D8M_Camera_Test_bsp//newlib/nios2-elf/lib/libc.a(lib_a-vfprintf.o)
 .bss           0x000000000003bab8        0x0 ../D8M_Camera_Test_bsp//newlib/nios2-elf/lib/libc.a(lib_a-wbuf.o)
 .bss           0x000000000003bab8        0x0 ../D8M_Camera_Test_bsp//newlib/nios2-elf/lib/libc.a(lib_a-wsetup.o)
 .bss           0x000000000003bab8        0x0 ../D8M_Camera_Test_bsp//newlib/nios2-elf/lib/libc.a(lib_a-dtoa.o)
 .bss           0x000000000003bab8        0x0 ../D8M_Camera_Test_bsp//newlib/nios2-elf/lib/libc.a(lib_a-fflush.o)
 .bss           0x000000000003bab8        0x0 ../D8M_Camera_Test_bsp//newlib/nios2-elf/lib/libc.a(lib_a-findfp.o)
 .bss           0x000000000003bab8        0x0 ../D8M_Camera_Test_bsp//newlib/nios2-elf/lib/libc.a(lib_a-freer.o)
 .bss           0x000000000003bab8        0x0 ../D8M_Camera_Test_bsp//newlib/nios2-elf/lib/libc.a(lib_a-fvwrite.o)
 .bss           0x000000000003bab8        0x0 ../D8M_Camera_Test_bsp//newlib/nios2-elf/lib/libc.a(lib_a-fwalk.o)
 .bss           0x000000000003bab8        0x0 ../D8M_Camera_Test_bsp//newlib/nios2-elf/lib/libc.a(lib_a-int_errno.o)
 .bss           0x000000000003bab8        0x0 ../D8M_Camera_Test_bsp//newlib/nios2-elf/lib/libc.a(lib_a-locale.o)
 .bss           0x000000000003bab8        0x0 ../D8M_Camera_Test_bsp//newlib/nios2-elf/lib/libc.a(lib_a-makebuf.o)
 .bss           0x000000000003bab8        0x0 ../D8M_Camera_Test_bsp//newlib/nios2-elf/lib/libc.a(lib_a-memchr.o)
 .bss           0x000000000003bab8        0x0 ../D8M_Camera_Test_bsp//newlib/nios2-elf/lib/libc.a(lib_a-memcpy.o)
 .bss           0x000000000003bab8        0x0 ../D8M_Camera_Test_bsp//newlib/nios2-elf/lib/libc.a(lib_a-memmove.o)
 .bss           0x000000000003bab8        0x0 ../D8M_Camera_Test_bsp//newlib/nios2-elf/lib/libc.a(lib_a-mprec.o)
 .bss           0x000000000003bab8        0x0 ../D8M_Camera_Test_bsp//newlib/nios2-elf/lib/libc.a(lib_a-reallocr.o)
 .bss           0x000000000003bab8        0x0 ../D8M_Camera_Test_bsp//newlib/nios2-elf/lib/libc.a(lib_a-refill.o)
 .bss           0x000000000003bab8        0x0 ../D8M_Camera_Test_bsp//newlib/nios2-elf/lib/libc.a(lib_a-s_fpclassify.o)
 .bss           0x000000000003bab8        0x0 ../D8M_Camera_Test_bsp//newlib/nios2-elf/lib/libc.a(lib_a-stdio.o)
 .bss           0x000000000003bab8        0x0 ../D8M_Camera_Test_bsp//newlib/nios2-elf/lib/libc.a(lib_a-strcmp.o)
 .bss           0x000000000003bab8        0x0 ../D8M_Camera_Test_bsp//newlib/nios2-elf/lib/libc.a(lib_a-vfiprintf.o)
 .bss           0x000000000003bab8        0x0 ../D8M_Camera_Test_bsp//newlib/nios2-elf/lib/libc.a(lib_a-writer.o)
 .bss           0x000000000003bab8        0x0 ../D8M_Camera_Test_bsp//newlib/nios2-elf/lib/libc.a(closer.o)
 .bss           0x000000000003bab8        0x0 ../D8M_Camera_Test_bsp//newlib/nios2-elf/lib/libc.a(lib_a-callocr.o)
 .bss           0x000000000003bab8        0x0 ../D8M_Camera_Test_bsp//newlib/nios2-elf/lib/libc.a(lib_a-fclose.o)
 .bss           0x000000000003bab8        0x0 ../D8M_Camera_Test_bsp//newlib/nios2-elf/lib/libc.a(lib_a-fputwc.o)
 .bss           0x000000000003bab8        0x0 ../D8M_Camera_Test_bsp//newlib/nios2-elf/lib/libc.a(lib_a-fstatr.o)
 .bss           0x000000000003bab8        0x0 ../D8M_Camera_Test_bsp//newlib/nios2-elf/lib/libc.a(lib_a-isattyr.o)
 .bss           0x000000000003bab8        0x0 ../D8M_Camera_Test_bsp//newlib/nios2-elf/lib/libc.a(lib_a-lseekr.o)
 .bss           0x000000000003bab8        0x0 ../D8M_Camera_Test_bsp//newlib/nios2-elf/lib/libc.a(lib_a-readr.o)
 .bss           0x000000000003bab8        0x0 ../D8M_Camera_Test_bsp//newlib/nios2-elf/lib/libc.a(lib_a-wcrtomb.o)
 .bss           0x000000000003bab8        0x0 ../D8M_Camera_Test_bsp//newlib/nios2-elf/lib/libc.a(lib_a-wctomb_r.o)
 .bss           0x000000000003bab8        0x0 /home/georgech/intelFPGA_lite/16.1/nios2eds/bin/gnu/H-x86_64-pc-linux-gnu/bin/../lib/gcc/nios2-elf/5.3.0/libgcc.a(_udivdi3.o)
 .bss           0x000000000003bab8        0x0 /home/georgech/intelFPGA_lite/16.1/nios2eds/bin/gnu/H-x86_64-pc-linux-gnu/bin/../lib/gcc/nios2-elf/5.3.0/libgcc.a(_umoddi3.o)
 .bss           0x000000000003bab8        0x0 /home/georgech/intelFPGA_lite/16.1/nios2eds/bin/gnu/H-x86_64-pc-linux-gnu/bin/../lib/gcc/nios2-elf/5.3.0/libgcc.a(lib2-divmod.o)
 .bss           0x000000000003bab8        0x0 /home/georgech/intelFPGA_lite/16.1/nios2eds/bin/gnu/H-x86_64-pc-linux-gnu/bin/../lib/gcc/nios2-elf/5.3.0/libgcc.a(divdf3.o)
 .bss           0x000000000003bab8        0x0 /home/georgech/intelFPGA_lite/16.1/nios2eds/bin/gnu/H-x86_64-pc-linux-gnu/bin/../lib/gcc/nios2-elf/5.3.0/libgcc.a(eqdf2.o)
 .bss           0x000000000003bab8        0x0 /home/georgech/intelFPGA_lite/16.1/nios2eds/bin/gnu/H-x86_64-pc-linux-gnu/bin/../lib/gcc/nios2-elf/5.3.0/libgcc.a(gedf2.o)
 .bss           0x000000000003bab8        0x0 /home/georgech/intelFPGA_lite/16.1/nios2eds/bin/gnu/H-x86_64-pc-linux-gnu/bin/../lib/gcc/nios2-elf/5.3.0/libgcc.a(ledf2.o)
 .bss           0x000000000003bab8        0x0 /home/georgech/intelFPGA_lite/16.1/nios2eds/bin/gnu/H-x86_64-pc-linux-gnu/bin/../lib/gcc/nios2-elf/5.3.0/libgcc.a(subdf3.o)
 .bss           0x000000000003bab8        0x0 /home/georgech/intelFPGA_lite/16.1/nios2eds/bin/gnu/H-x86_64-pc-linux-gnu/bin/../lib/gcc/nios2-elf/5.3.0/libgcc.a(fixdfsi.o)
 .bss           0x000000000003bab8        0x0 /home/georgech/intelFPGA_lite/16.1/nios2eds/bin/gnu/H-x86_64-pc-linux-gnu/bin/../lib/gcc/nios2-elf/5.3.0/libgcc.a(floatunsidf.o)
 .bss           0x000000000003bab8        0x0 ../D8M_Camera_Test_bsp//libhal_bsp.a(alt_close.o)
 .bss           0x000000000003bab8        0x0 ../D8M_Camera_Test_bsp//libhal_bsp.a(alt_dev.o)
 .bss           0x000000000003bab8        0x0 ../D8M_Camera_Test_bsp//libhal_bsp.a(alt_errno.o)
 .bss           0x000000000003bab8        0x0 ../D8M_Camera_Test_bsp//libhal_bsp.a(alt_fcntl.o)
 .bss           0x000000000003bab8        0x0 ../D8M_Camera_Test_bsp//libhal_bsp.a(alt_fstat.o)
 .bss           0x000000000003bab8        0x0 ../D8M_Camera_Test_bsp//libhal_bsp.a(alt_isatty.o)
 .bss           0x000000000003bab8        0x0 ../D8M_Camera_Test_bsp//libhal_bsp.a(alt_load.o)
 .bss           0x000000000003bab8        0x0 ../D8M_Camera_Test_bsp//libhal_bsp.a(alt_lseek.o)
 .bss           0x000000000003bab8        0x0 ../D8M_Camera_Test_bsp//libhal_bsp.a(alt_main.o)
 .bss           0x000000000003bab8        0x0 ../D8M_Camera_Test_bsp//libhal_bsp.a(alt_malloc_lock.o)
 .bss           0x000000000003bab8        0x0 ../D8M_Camera_Test_bsp//libhal_bsp.a(alt_read.o)
 .bss           0x000000000003bab8        0x0 ../D8M_Camera_Test_bsp//libhal_bsp.a(alt_release_fd.o)
 .bss           0x000000000003bab8        0x0 ../D8M_Camera_Test_bsp//libhal_bsp.a(alt_sbrk.o)
 .bss           0x000000000003bab8        0x0 ../D8M_Camera_Test_bsp//libhal_bsp.a(alt_tick.o)
 .bss           0x000000000003bab8        0x0 ../D8M_Camera_Test_bsp//libhal_bsp.a(alt_usleep.o)
 .bss           0x000000000003bab8        0x0 ../D8M_Camera_Test_bsp//libhal_bsp.a(alt_write.o)
 .bss           0x000000000003bab8        0x0 ../D8M_Camera_Test_bsp//libhal_bsp.a(alt_sys_init.o)
 .bss           0x000000000003bab8        0x0 ../D8M_Camera_Test_bsp//libhal_bsp.a(altera_avalon_jtag_uart_fd.o)
 .bss           0x000000000003bab8        0x0 ../D8M_Camera_Test_bsp//libhal_bsp.a(altera_avalon_jtag_uart_init.o)
 .bss           0x000000000003bab8        0x0 ../D8M_Camera_Test_bsp//libhal_bsp.a(altera_avalon_jtag_uart_ioctl.o)
 .bss           0x000000000003bab8        0x0 ../D8M_Camera_Test_bsp//libhal_bsp.a(altera_avalon_jtag_uart_read.o)
 .bss           0x000000000003bab8        0x0 ../D8M_Camera_Test_bsp//libhal_bsp.a(altera_avalon_jtag_uart_write.o)
 .bss           0x000000000003bab8        0x0 ../D8M_Camera_Test_bsp//libhal_bsp.a(altera_avalon_timer_sc.o)
 .bss           0x000000000003bab8        0x0 ../D8M_Camera_Test_bsp//libhal_bsp.a(altera_avalon_uart_fd.o)
 .bss           0x000000000003bab8        0x0 ../D8M_Camera_Test_bsp//libhal_bsp.a(altera_avalon_uart_init.o)
 .bss           0x000000000003bab8        0x0 ../D8M_Camera_Test_bsp//libhal_bsp.a(altera_avalon_uart_read.o)
 .bss           0x000000000003bab8        0x0 ../D8M_Camera_Test_bsp//libhal_bsp.a(altera_avalon_uart_write.o)
 .bss           0x000000000003bab8        0x0 ../D8M_Camera_Test_bsp//libhal_bsp.a(alt_alarm_start.o)
 .bss           0x000000000003bab8        0x0 ../D8M_Camera_Test_bsp//libhal_bsp.a(alt_busy_sleep.o)
 .bss           0x000000000003bab8        0x0 ../D8M_Camera_Test_bsp//libhal_bsp.a(alt_dcache_flush_all.o)
 .bss           0x000000000003bab8        0x0 ../D8M_Camera_Test_bsp//libhal_bsp.a(alt_dev_llist_insert.o)
 .bss           0x000000000003bab8        0x0 ../D8M_Camera_Test_bsp//libhal_bsp.a(alt_do_ctors.o)
 .bss           0x000000000003bab8        0x0 ../D8M_Camera_Test_bsp//libhal_bsp.a(alt_do_dtors.o)
 .bss           0x000000000003bab8        0x0 ../D8M_Camera_Test_bsp//libhal_bsp.a(alt_icache_flush_all.o)
 .bss           0x000000000003bab8        0x0 ../D8M_Camera_Test_bsp//libhal_bsp.a(alt_iic.o)
 .bss           0x000000000003bab8        0x0 ../D8M_Camera_Test_bsp//libhal_bsp.a(alt_iic_isr_register.o)
 .bss           0x000000000003bab8        0x0 ../D8M_Camera_Test_bsp//libhal_bsp.a(alt_io_redirect.o)
 .bss           0x000000000003bab8        0x0 ../D8M_Camera_Test_bsp//libhal_bsp.a(alt_irq_entry.o)
 .bss           0x000000000003bab8        0x0 ../D8M_Camera_Test_bsp//libhal_bsp.a(alt_irq_handler.o)
 .bss           0x000000000003bab8        0x0 ../D8M_Camera_Test_bsp//libhal_bsp.a(alt_irq_vars.o)
 .bss           0x000000000003bab8        0x0 ../D8M_Camera_Test_bsp//libhal_bsp.a(alt_open.o)
 .bss           0x000000000003bab8        0x0 ../D8M_Camera_Test_bsp//libhal_bsp.a(altera_nios2_gen2_irq.o)
 .bss           0x000000000003bab8        0x0 ../D8M_Camera_Test_bsp//libhal_bsp.a(alt_exception_entry.o)
 .bss           0x000000000003bab8        0x0 ../D8M_Camera_Test_bsp//libhal_bsp.a(alt_find_dev.o)
 .bss           0x000000000003bab8        0x0 ../D8M_Camera_Test_bsp//libhal_bsp.a(alt_find_file.o)
 .bss           0x000000000003bab8        0x0 ../D8M_Camera_Test_bsp//libhal_bsp.a(alt_get_fd.o)
 .bss           0x000000000003bab8        0x0 ../D8M_Camera_Test_bsp//libhal_bsp.a(alt_icache_flush.o)
 .bss           0x000000000003bab8        0x0 ../D8M_Camera_Test_bsp//libhal_bsp.a(alt_instruction_exception_entry.o)
 .bss           0x000000000003bab8        0x0 ../D8M_Camera_Test_bsp//newlib/nios2-elf/lib/libc.a(lib_a-atexit.o)
 .bss           0x000000000003bab8        0x0 ../D8M_Camera_Test_bsp//newlib/nios2-elf/lib/libc.a(lib_a-exit.o)
 .bss           0x000000000003bab8        0x0 ../D8M_Camera_Test_bsp//newlib/nios2-elf/lib/libc.a(lib_a-memcmp.o)
 .bss           0x000000000003bab8        0x0 ../D8M_Camera_Test_bsp//newlib/nios2-elf/lib/libc.a(lib_a-__atexit.o)
 .bss           0x000000000003bab8        0x0 ../D8M_Camera_Test_bsp//newlib/nios2-elf/lib/libc.a(lib_a-__call_atexit.o)
 .bss           0x000000000003bab8        0x0 ../D8M_Camera_Test_bsp//libhal_bsp.a(alt_exit.o)
 *(COMMON)
 COMMON         0x000000000003bab8      0x100 ../D8M_Camera_Test_bsp//libhal_bsp.a(alt_irq_handler.o)
                0x000000000003bab8                alt_irq
                0x000000000003bbb8                . = ALIGN (0x4)
                0x000000000003bbb8                __bss_end = ABSOLUTE (.)

.onchip_memory2_0
                0x000000000003bbb8        0x0
                [!provide]                        PROVIDE (_alt_partition_onchip_memory2_0_start, ABSOLUTE (.))
 *(.onchip_memory2_0 .onchip_memory2_0. onchip_memory2_0.*)
                0x000000000003bbb8                . = ALIGN (0x4)
                [!provide]                        PROVIDE (_alt_partition_onchip_memory2_0_end, ABSOLUTE (.))
                0x000000000003bbb8                _end = ABSOLUTE (.)
                0x000000000003bbb8                end = ABSOLUTE (.)
                0x000000000003bbb8                __alt_stack_base = ABSOLUTE (.)
                [!provide]                        PROVIDE (_alt_partition_onchip_memory2_0_load_addr, LOADADDR (.onchip_memory2_0))

.stab
 *(.stab)

.stabstr
 *(.stabstr)

.stab.excl
 *(.stab.excl)

.stab.exclstr
 *(.stab.exclstr)

.stab.index
 *(.stab.index)

.stab.indexstr
 *(.stab.indexstr)

.comment        0x0000000000000000       0x46
 *(.comment)
 .comment       0x0000000000000000       0x23 obj/default/1.o
                                         0x24 (size before relaxing)
 .comment       0x0000000000000023       0x24 obj/default/I2C_core.o
 .comment       0x0000000000000023       0x24 obj/default/auto_focus.o
 .comment       0x0000000000000023       0x24 obj/default/main.o
 .comment       0x0000000000000023       0x24 obj/default/mipi_bridge_config.o
 .comment       0x0000000000000023       0x24 obj/default/mipi_camera_config.o
 .comment       0x0000000000000023       0x24 obj/default/mipi_helpers.o
 .comment       0x0000000000000023       0x24 obj/default/queue.o
 .comment       0x0000000000000023       0x24 /home/georgech/intelFPGA_lite/16.1/nios2eds/bin/gnu/H-x86_64-pc-linux-gnu/bin/../lib/gcc/nios2-elf/5.3.0/libgcc.a(adddf3.o)
 .comment       0x0000000000000023       0x24 /home/georgech/intelFPGA_lite/16.1/nios2eds/bin/gnu/H-x86_64-pc-linux-gnu/bin/../lib/gcc/nios2-elf/5.3.0/libgcc.a(muldf3.o)
 .comment       0x0000000000000023       0x24 /home/georgech/intelFPGA_lite/16.1/nios2eds/bin/gnu/H-x86_64-pc-linux-gnu/bin/../lib/gcc/nios2-elf/5.3.0/libgcc.a(floatsidf.o)
 .comment       0x0000000000000023       0x24 /home/georgech/intelFPGA_lite/16.1/nios2eds/bin/gnu/H-x86_64-pc-linux-gnu/bin/../lib/gcc/nios2-elf/5.3.0/libgcc.a(extendsfdf2.o)
 .comment       0x0000000000000023       0x24 /home/georgech/intelFPGA_lite/16.1/nios2eds/bin/gnu/H-x86_64-pc-linux-gnu/bin/../lib/gcc/nios2-elf/5.3.0/libgcc.a(truncdfsf2.o)
 .comment       0x0000000000000023       0x24 /home/georgech/intelFPGA_lite/16.1/nios2eds/bin/gnu/H-x86_64-pc-linux-gnu/bin/../lib/gcc/nios2-elf/5.3.0/libgcc.a(_clzsi2.o)
 .comment       0x0000000000000023       0x24 /home/georgech/intelFPGA_lite/16.1/nios2eds/bin/gnu/H-x86_64-pc-linux-gnu/bin/../lib/gcc/nios2-elf/5.3.0/libgcc.a(_clz.o)
 .comment       0x0000000000000023       0x23 ../D8M_Camera_Test_bsp//newlib/nios2-elf/lib/libc.a(lib_a-fprintf.o)
                                         0x24 (size before relaxing)
 .comment       0x0000000000000046       0x24 ../D8M_Camera_Test_bsp//newlib/nios2-elf/lib/libc.a(lib_a-fputc.o)
 .comment       0x0000000000000046       0x24 ../D8M_Camera_Test_bsp//newlib/nios2-elf/lib/libc.a(lib_a-fwrite.o)
 .comment       0x0000000000000046       0x24 ../D8M_Camera_Test_bsp//newlib/nios2-elf/lib/libc.a(lib_a-getc.o)
 .comment       0x0000000000000046       0x24 ../D8M_Camera_Test_bsp//newlib/nios2-elf/lib/libc.a(lib_a-impure.o)
 .comment       0x0000000000000046       0x24 ../D8M_Camera_Test_bsp//newlib/nios2-elf/lib/libc.a(lib_a-malloc.o)
 .comment       0x0000000000000046       0x24 ../D8M_Camera_Test_bsp//newlib/nios2-elf/lib/libc.a(lib_a-mallocr.o)
 .comment       0x0000000000000046       0x24 ../D8M_Camera_Test_bsp//newlib/nios2-elf/lib/libc.a(lib_a-memset.o)
 .comment       0x0000000000000046       0x24 ../D8M_Camera_Test_bsp//newlib/nios2-elf/lib/libc.a(lib_a-printf.o)
 .comment       0x0000000000000046       0x24 ../D8M_Camera_Test_bsp//newlib/nios2-elf/lib/libc.a(lib_a-putc.o)
 .comment       0x0000000000000046       0x24 ../D8M_Camera_Test_bsp//newlib/nios2-elf/lib/libc.a(lib_a-puts.o)
 .comment       0x0000000000000046       0x24 ../D8M_Camera_Test_bsp//newlib/nios2-elf/lib/libc.a(lib_a-rget.o)
 .comment       0x0000000000000046       0x24 ../D8M_Camera_Test_bsp//newlib/nios2-elf/lib/libc.a(lib_a-sbrkr.o)
 .comment       0x0000000000000046       0x24 ../D8M_Camera_Test_bsp//newlib/nios2-elf/lib/libc.a(lib_a-strlen.o)
 .comment       0x0000000000000046       0x24 ../D8M_Camera_Test_bsp//newlib/nios2-elf/lib/libc.a(lib_a-vfprintf.o)
 .comment       0x0000000000000046       0x24 ../D8M_Camera_Test_bsp//newlib/nios2-elf/lib/libc.a(lib_a-wbuf.o)
 .comment       0x0000000000000046       0x24 ../D8M_Camera_Test_bsp//newlib/nios2-elf/lib/libc.a(lib_a-wsetup.o)
 .comment       0x0000000000000046       0x24 ../D8M_Camera_Test_bsp//newlib/nios2-elf/lib/libc.a(lib_a-dtoa.o)
 .comment       0x0000000000000046       0x24 ../D8M_Camera_Test_bsp//newlib/nios2-elf/lib/libc.a(lib_a-fflush.o)
 .comment       0x0000000000000046       0x24 ../D8M_Camera_Test_bsp//newlib/nios2-elf/lib/libc.a(lib_a-findfp.o)
 .comment       0x0000000000000046       0x24 ../D8M_Camera_Test_bsp//newlib/nios2-elf/lib/libc.a(lib_a-freer.o)
 .comment       0x0000000000000046       0x24 ../D8M_Camera_Test_bsp//newlib/nios2-elf/lib/libc.a(lib_a-fvwrite.o)
 .comment       0x0000000000000046       0x24 ../D8M_Camera_Test_bsp//newlib/nios2-elf/lib/libc.a(lib_a-fwalk.o)
 .comment       0x0000000000000046       0x24 ../D8M_Camera_Test_bsp//newlib/nios2-elf/lib/libc.a(lib_a-int_errno.o)
 .comment       0x0000000000000046       0x24 ../D8M_Camera_Test_bsp//newlib/nios2-elf/lib/libc.a(lib_a-locale.o)
 .comment       0x0000000000000046       0x24 ../D8M_Camera_Test_bsp//newlib/nios2-elf/lib/libc.a(lib_a-makebuf.o)
 .comment       0x0000000000000046       0x24 ../D8M_Camera_Test_bsp//newlib/nios2-elf/lib/libc.a(lib_a-memchr.o)
 .comment       0x0000000000000046       0x24 ../D8M_Camera_Test_bsp//newlib/nios2-elf/lib/libc.a(lib_a-memcpy.o)
 .comment       0x0000000000000046       0x24 ../D8M_Camera_Test_bsp//newlib/nios2-elf/lib/libc.a(lib_a-memmove.o)
 .comment       0x0000000000000046       0x24 ../D8M_Camera_Test_bsp//newlib/nios2-elf/lib/libc.a(lib_a-mprec.o)
 .comment       0x0000000000000046       0x24 ../D8M_Camera_Test_bsp//newlib/nios2-elf/lib/libc.a(lib_a-reallocr.o)
 .comment       0x0000000000000046       0x24 ../D8M_Camera_Test_bsp//newlib/nios2-elf/lib/libc.a(lib_a-refill.o)
 .comment       0x0000000000000046       0x24 ../D8M_Camera_Test_bsp//newlib/nios2-elf/lib/libc.a(lib_a-s_fpclassify.o)
 .comment       0x0000000000000046       0x24 ../D8M_Camera_Test_bsp//newlib/nios2-elf/lib/libc.a(lib_a-stdio.o)
 .comment       0x0000000000000046       0x24 ../D8M_Camera_Test_bsp//newlib/nios2-elf/lib/libc.a(lib_a-strcmp.o)
 .comment       0x0000000000000046       0x24 ../D8M_Camera_Test_bsp//newlib/nios2-elf/lib/libc.a(lib_a-vfiprintf.o)
 .comment       0x0000000000000046       0x24 ../D8M_Camera_Test_bsp//newlib/nios2-elf/lib/libc.a(lib_a-writer.o)
 .comment       0x0000000000000046       0x24 ../D8M_Camera_Test_bsp//newlib/nios2-elf/lib/libc.a(closer.o)
 .comment       0x0000000000000046       0x24 ../D8M_Camera_Test_bsp//newlib/nios2-elf/lib/libc.a(lib_a-callocr.o)
 .comment       0x0000000000000046       0x24 ../D8M_Camera_Test_bsp//newlib/nios2-elf/lib/libc.a(lib_a-fclose.o)
 .comment       0x0000000000000046       0x24 ../D8M_Camera_Test_bsp//newlib/nios2-elf/lib/libc.a(lib_a-fputwc.o)
 .comment       0x0000000000000046       0x24 ../D8M_Camera_Test_bsp//newlib/nios2-elf/lib/libc.a(lib_a-fstatr.o)
 .comment       0x0000000000000046       0x24 ../D8M_Camera_Test_bsp//newlib/nios2-elf/lib/libc.a(lib_a-isattyr.o)
 .comment       0x0000000000000046       0x24 ../D8M_Camera_Test_bsp//newlib/nios2-elf/lib/libc.a(lib_a-lseekr.o)
 .comment       0x0000000000000046       0x24 ../D8M_Camera_Test_bsp//newlib/nios2-elf/lib/libc.a(lib_a-readr.o)
 .comment       0x0000000000000046       0x24 ../D8M_Camera_Test_bsp//newlib/nios2-elf/lib/libc.a(lib_a-wcrtomb.o)
 .comment       0x0000000000000046       0x24 ../D8M_Camera_Test_bsp//newlib/nios2-elf/lib/libc.a(lib_a-wctomb_r.o)
 .comment       0x0000000000000046       0x24 /home/georgech/intelFPGA_lite/16.1/nios2eds/bin/gnu/H-x86_64-pc-linux-gnu/bin/../lib/gcc/nios2-elf/5.3.0/libgcc.a(_udivdi3.o)
 .comment       0x0000000000000046       0x24 /home/georgech/intelFPGA_lite/16.1/nios2eds/bin/gnu/H-x86_64-pc-linux-gnu/bin/../lib/gcc/nios2-elf/5.3.0/libgcc.a(_umoddi3.o)
 .comment       0x0000000000000046       0x24 /home/georgech/intelFPGA_lite/16.1/nios2eds/bin/gnu/H-x86_64-pc-linux-gnu/bin/../lib/gcc/nios2-elf/5.3.0/libgcc.a(lib2-divmod.o)
 .comment       0x0000000000000046       0x24 /home/georgech/intelFPGA_lite/16.1/nios2eds/bin/gnu/H-x86_64-pc-linux-gnu/bin/../lib/gcc/nios2-elf/5.3.0/libgcc.a(divdf3.o)
 .comment       0x0000000000000046       0x24 /home/georgech/intelFPGA_lite/16.1/nios2eds/bin/gnu/H-x86_64-pc-linux-gnu/bin/../lib/gcc/nios2-elf/5.3.0/libgcc.a(eqdf2.o)
 .comment       0x0000000000000046       0x24 /home/georgech/intelFPGA_lite/16.1/nios2eds/bin/gnu/H-x86_64-pc-linux-gnu/bin/../lib/gcc/nios2-elf/5.3.0/libgcc.a(gedf2.o)
 .comment       0x0000000000000046       0x24 /home/georgech/intelFPGA_lite/16.1/nios2eds/bin/gnu/H-x86_64-pc-linux-gnu/bin/../lib/gcc/nios2-elf/5.3.0/libgcc.a(ledf2.o)
 .comment       0x0000000000000046       0x24 /home/georgech/intelFPGA_lite/16.1/nios2eds/bin/gnu/H-x86_64-pc-linux-gnu/bin/../lib/gcc/nios2-elf/5.3.0/libgcc.a(subdf3.o)
 .comment       0x0000000000000046       0x24 /home/georgech/intelFPGA_lite/16.1/nios2eds/bin/gnu/H-x86_64-pc-linux-gnu/bin/../lib/gcc/nios2-elf/5.3.0/libgcc.a(fixdfsi.o)
 .comment       0x0000000000000046       0x24 /home/georgech/intelFPGA_lite/16.1/nios2eds/bin/gnu/H-x86_64-pc-linux-gnu/bin/../lib/gcc/nios2-elf/5.3.0/libgcc.a(floatunsidf.o)
 .comment       0x0000000000000046       0x24 ../D8M_Camera_Test_bsp//libhal_bsp.a(alt_close.o)
 .comment       0x0000000000000046       0x24 ../D8M_Camera_Test_bsp//libhal_bsp.a(alt_dev.o)
 .comment       0x0000000000000046       0x24 ../D8M_Camera_Test_bsp//libhal_bsp.a(alt_errno.o)
 .comment       0x0000000000000046       0x24 ../D8M_Camera_Test_bsp//libhal_bsp.a(alt_fcntl.o)
 .comment       0x0000000000000046       0x24 ../D8M_Camera_Test_bsp//libhal_bsp.a(alt_fstat.o)
 .comment       0x0000000000000046       0x24 ../D8M_Camera_Test_bsp//libhal_bsp.a(alt_isatty.o)
 .comment       0x0000000000000046       0x24 ../D8M_Camera_Test_bsp//libhal_bsp.a(alt_load.o)
 .comment       0x0000000000000046       0x24 ../D8M_Camera_Test_bsp//libhal_bsp.a(alt_lseek.o)
 .comment       0x0000000000000046       0x24 ../D8M_Camera_Test_bsp//libhal_bsp.a(alt_main.o)
 .comment       0x0000000000000046       0x24 ../D8M_Camera_Test_bsp//libhal_bsp.a(alt_malloc_lock.o)
 .comment       0x0000000000000046       0x24 ../D8M_Camera_Test_bsp//libhal_bsp.a(alt_read.o)
 .comment       0x0000000000000046       0x24 ../D8M_Camera_Test_bsp//libhal_bsp.a(alt_release_fd.o)
 .comment       0x0000000000000046       0x24 ../D8M_Camera_Test_bsp//libhal_bsp.a(alt_sbrk.o)
 .comment       0x0000000000000046       0x24 ../D8M_Camera_Test_bsp//libhal_bsp.a(alt_tick.o)
 .comment       0x0000000000000046       0x24 ../D8M_Camera_Test_bsp//libhal_bsp.a(alt_usleep.o)
 .comment       0x0000000000000046       0x24 ../D8M_Camera_Test_bsp//libhal_bsp.a(alt_write.o)
 .comment       0x0000000000000046       0x24 ../D8M_Camera_Test_bsp//libhal_bsp.a(alt_sys_init.o)
 .comment       0x0000000000000046       0x24 ../D8M_Camera_Test_bsp//libhal_bsp.a(altera_avalon_jtag_uart_fd.o)
 .comment       0x0000000000000046       0x24 ../D8M_Camera_Test_bsp//libhal_bsp.a(altera_avalon_jtag_uart_init.o)
 .comment       0x0000000000000046       0x24 ../D8M_Camera_Test_bsp//libhal_bsp.a(altera_avalon_jtag_uart_ioctl.o)
 .comment       0x0000000000000046       0x24 ../D8M_Camera_Test_bsp//libhal_bsp.a(altera_avalon_jtag_uart_read.o)
 .comment       0x0000000000000046       0x24 ../D8M_Camera_Test_bsp//libhal_bsp.a(altera_avalon_jtag_uart_write.o)
 .comment       0x0000000000000046       0x24 ../D8M_Camera_Test_bsp//libhal_bsp.a(altera_avalon_timer_sc.o)
 .comment       0x0000000000000046       0x24 ../D8M_Camera_Test_bsp//libhal_bsp.a(altera_avalon_uart_fd.o)
 .comment       0x0000000000000046       0x24 ../D8M_Camera_Test_bsp//libhal_bsp.a(altera_avalon_uart_init.o)
 .comment       0x0000000000000046       0x24 ../D8M_Camera_Test_bsp//libhal_bsp.a(altera_avalon_uart_read.o)
 .comment       0x0000000000000046       0x24 ../D8M_Camera_Test_bsp//libhal_bsp.a(altera_avalon_uart_write.o)
 .comment       0x0000000000000046       0x24 ../D8M_Camera_Test_bsp//libhal_bsp.a(alt_alarm_start.o)
 .comment       0x0000000000000046       0x24 ../D8M_Camera_Test_bsp//libhal_bsp.a(alt_busy_sleep.o)
 .comment       0x0000000000000046       0x24 ../D8M_Camera_Test_bsp//libhal_bsp.a(alt_dcache_flush_all.o)
 .comment       0x0000000000000046       0x24 ../D8M_Camera_Test_bsp//libhal_bsp.a(alt_dev_llist_insert.o)
 .comment       0x0000000000000046       0x24 ../D8M_Camera_Test_bsp//libhal_bsp.a(alt_do_ctors.o)
 .comment       0x0000000000000046       0x24 ../D8M_Camera_Test_bsp//libhal_bsp.a(alt_do_dtors.o)
 .comment       0x0000000000000046       0x24 ../D8M_Camera_Test_bsp//libhal_bsp.a(alt_icache_flush_all.o)
 .comment       0x0000000000000046       0x24 ../D8M_Camera_Test_bsp//libhal_bsp.a(alt_iic.o)
 .comment       0x0000000000000046       0x24 ../D8M_Camera_Test_bsp//libhal_bsp.a(alt_iic_isr_register.o)
 .comment       0x0000000000000046       0x24 ../D8M_Camera_Test_bsp//libhal_bsp.a(alt_io_redirect.o)
 .comment       0x0000000000000046       0x24 ../D8M_Camera_Test_bsp//libhal_bsp.a(alt_irq_handler.o)
 .comment       0x0000000000000046       0x24 ../D8M_Camera_Test_bsp//libhal_bsp.a(alt_irq_vars.o)
 .comment       0x0000000000000046       0x24 ../D8M_Camera_Test_bsp//libhal_bsp.a(alt_open.o)
 .comment       0x0000000000000046       0x24 ../D8M_Camera_Test_bsp//libhal_bsp.a(altera_nios2_gen2_irq.o)
 .comment       0x0000000000000046       0x24 ../D8M_Camera_Test_bsp//libhal_bsp.a(alt_find_dev.o)
 .comment       0x0000000000000046       0x24 ../D8M_Camera_Test_bsp//libhal_bsp.a(alt_find_file.o)
 .comment       0x0000000000000046       0x24 ../D8M_Camera_Test_bsp//libhal_bsp.a(alt_get_fd.o)
 .comment       0x0000000000000046       0x24 ../D8M_Camera_Test_bsp//libhal_bsp.a(alt_icache_flush.o)
 .comment       0x0000000000000046       0x24 ../D8M_Camera_Test_bsp//libhal_bsp.a(alt_instruction_exception_entry.o)
 .comment       0x0000000000000046       0x24 ../D8M_Camera_Test_bsp//newlib/nios2-elf/lib/libc.a(lib_a-atexit.o)
 .comment       0x0000000000000046       0x24 ../D8M_Camera_Test_bsp//newlib/nios2-elf/lib/libc.a(lib_a-exit.o)
 .comment       0x0000000000000046       0x24 ../D8M_Camera_Test_bsp//newlib/nios2-elf/lib/libc.a(lib_a-memcmp.o)
 .comment       0x0000000000000046       0x24 ../D8M_Camera_Test_bsp//newlib/nios2-elf/lib/libc.a(lib_a-__atexit.o)
 .comment       0x0000000000000046       0x24 ../D8M_Camera_Test_bsp//newlib/nios2-elf/lib/libc.a(lib_a-__call_atexit.o)
 .comment       0x0000000000000046       0x24 ../D8M_Camera_Test_bsp//libhal_bsp.a(alt_exit.o)

.debug
 *(.debug)

.line
 *(.line)

.debug_srcinfo
 *(.debug_srcinfo)

.debug_sfnames
 *(.debug_sfnames)

.debug_aranges  0x0000000000000000     0x1228
 *(.debug_aranges)
 .debug_aranges
                0x0000000000000000       0x28 ../D8M_Camera_Test_bsp//obj/HAL/src/crt0.o
 .debug_aranges
                0x0000000000000028       0x20 obj/default/1.o
 .debug_aranges
                0x0000000000000048       0x20 obj/default/I2C_core.o
 .debug_aranges
                0x0000000000000068       0x20 obj/default/auto_focus.o
 .debug_aranges
                0x0000000000000088       0x20 obj/default/main.o
 .debug_aranges
                0x00000000000000a8       0x20 obj/default/mipi_bridge_config.o
 .debug_aranges
                0x00000000000000c8       0x20 obj/default/mipi_camera_config.o
 .debug_aranges
                0x00000000000000e8       0x20 obj/default/mipi_helpers.o
 .debug_aranges
                0x0000000000000108       0x20 obj/default/queue.o
 .debug_aranges
                0x0000000000000128       0x20 /home/georgech/intelFPGA_lite/16.1/nios2eds/bin/gnu/H-x86_64-pc-linux-gnu/bin/../lib/gcc/nios2-elf/5.3.0/libgcc.a(adddf3.o)
 .debug_aranges
                0x0000000000000148       0x20 /home/georgech/intelFPGA_lite/16.1/nios2eds/bin/gnu/H-x86_64-pc-linux-gnu/bin/../lib/gcc/nios2-elf/5.3.0/libgcc.a(muldf3.o)
 .debug_aranges
                0x0000000000000168       0x20 /home/georgech/intelFPGA_lite/16.1/nios2eds/bin/gnu/H-x86_64-pc-linux-gnu/bin/../lib/gcc/nios2-elf/5.3.0/libgcc.a(floatsidf.o)
 .debug_aranges
                0x0000000000000188       0x20 /home/georgech/intelFPGA_lite/16.1/nios2eds/bin/gnu/H-x86_64-pc-linux-gnu/bin/../lib/gcc/nios2-elf/5.3.0/libgcc.a(extendsfdf2.o)
 .debug_aranges
                0x00000000000001a8       0x20 /home/georgech/intelFPGA_lite/16.1/nios2eds/bin/gnu/H-x86_64-pc-linux-gnu/bin/../lib/gcc/nios2-elf/5.3.0/libgcc.a(truncdfsf2.o)
 .debug_aranges
                0x00000000000001c8       0x20 /home/georgech/intelFPGA_lite/16.1/nios2eds/bin/gnu/H-x86_64-pc-linux-gnu/bin/../lib/gcc/nios2-elf/5.3.0/libgcc.a(_clzsi2.o)
 .debug_aranges
                0x00000000000001e8       0x18 /home/georgech/intelFPGA_lite/16.1/nios2eds/bin/gnu/H-x86_64-pc-linux-gnu/bin/../lib/gcc/nios2-elf/5.3.0/libgcc.a(_clz.o)
 .debug_aranges
                0x0000000000000200       0x28 ../D8M_Camera_Test_bsp//newlib/nios2-elf/lib/libc.a(lib_a-fprintf.o)
 .debug_aranges
                0x0000000000000228       0x28 ../D8M_Camera_Test_bsp//newlib/nios2-elf/lib/libc.a(lib_a-fputc.o)
 .debug_aranges
                0x0000000000000250       0x28 ../D8M_Camera_Test_bsp//newlib/nios2-elf/lib/libc.a(lib_a-fwrite.o)
 .debug_aranges
                0x0000000000000278       0x28 ../D8M_Camera_Test_bsp//newlib/nios2-elf/lib/libc.a(lib_a-getc.o)
 .debug_aranges
                0x00000000000002a0       0x18 ../D8M_Camera_Test_bsp//newlib/nios2-elf/lib/libc.a(lib_a-impure.o)
 .debug_aranges
                0x00000000000002b8       0x28 ../D8M_Camera_Test_bsp//newlib/nios2-elf/lib/libc.a(lib_a-malloc.o)
 .debug_aranges
                0x00000000000002e0       0x28 ../D8M_Camera_Test_bsp//newlib/nios2-elf/lib/libc.a(lib_a-mallocr.o)
 .debug_aranges
                0x0000000000000308       0x20 ../D8M_Camera_Test_bsp//newlib/nios2-elf/lib/libc.a(lib_a-memset.o)
 .debug_aranges
                0x0000000000000328       0x28 ../D8M_Camera_Test_bsp//newlib/nios2-elf/lib/libc.a(lib_a-printf.o)
 .debug_aranges
                0x0000000000000350       0x28 ../D8M_Camera_Test_bsp//newlib/nios2-elf/lib/libc.a(lib_a-putc.o)
 .debug_aranges
                0x0000000000000378       0x28 ../D8M_Camera_Test_bsp//newlib/nios2-elf/lib/libc.a(lib_a-puts.o)
 .debug_aranges
                0x00000000000003a0       0x28 ../D8M_Camera_Test_bsp//newlib/nios2-elf/lib/libc.a(lib_a-rget.o)
 .debug_aranges
                0x00000000000003c8       0x20 ../D8M_Camera_Test_bsp//newlib/nios2-elf/lib/libc.a(lib_a-sbrkr.o)
 .debug_aranges
                0x00000000000003e8       0x20 ../D8M_Camera_Test_bsp//newlib/nios2-elf/lib/libc.a(lib_a-strlen.o)
 .debug_aranges
                0x0000000000000408       0x40 ../D8M_Camera_Test_bsp//newlib/nios2-elf/lib/libc.a(lib_a-vfprintf.o)
 .debug_aranges
                0x0000000000000448       0x28 ../D8M_Camera_Test_bsp//newlib/nios2-elf/lib/libc.a(lib_a-wbuf.o)
 .debug_aranges
                0x0000000000000470       0x20 ../D8M_Camera_Test_bsp//newlib/nios2-elf/lib/libc.a(lib_a-wsetup.o)
 .debug_aranges
                0x0000000000000490       0x28 ../D8M_Camera_Test_bsp//newlib/nios2-elf/lib/libc.a(lib_a-dtoa.o)
 .debug_aranges
                0x00000000000004b8       0x30 ../D8M_Camera_Test_bsp//newlib/nios2-elf/lib/libc.a(lib_a-fflush.o)
 .debug_aranges
                0x00000000000004e8       0x88 ../D8M_Camera_Test_bsp//newlib/nios2-elf/lib/libc.a(lib_a-findfp.o)
 .debug_aranges
                0x0000000000000570       0x28 ../D8M_Camera_Test_bsp//newlib/nios2-elf/lib/libc.a(lib_a-freer.o)
 .debug_aranges
                0x0000000000000598       0x20 ../D8M_Camera_Test_bsp//newlib/nios2-elf/lib/libc.a(lib_a-fvwrite.o)
 .debug_aranges
                0x00000000000005b8       0x28 ../D8M_Camera_Test_bsp//newlib/nios2-elf/lib/libc.a(lib_a-fwalk.o)
 .debug_aranges
                0x00000000000005e0       0x18 ../D8M_Camera_Test_bsp//newlib/nios2-elf/lib/libc.a(lib_a-int_errno.o)
 .debug_aranges
                0x00000000000005f8       0x58 ../D8M_Camera_Test_bsp//newlib/nios2-elf/lib/libc.a(lib_a-locale.o)
 .debug_aranges
                0x0000000000000650       0x20 ../D8M_Camera_Test_bsp//newlib/nios2-elf/lib/libc.a(lib_a-makebuf.o)
 .debug_aranges
                0x0000000000000670       0x20 ../D8M_Camera_Test_bsp//newlib/nios2-elf/lib/libc.a(lib_a-memchr.o)
 .debug_aranges
                0x0000000000000690       0x20 ../D8M_Camera_Test_bsp//newlib/nios2-elf/lib/libc.a(lib_a-memcpy.o)
 .debug_aranges
                0x00000000000006b0       0x20 ../D8M_Camera_Test_bsp//newlib/nios2-elf/lib/libc.a(lib_a-memmove.o)
 .debug_aranges
                0x00000000000006d0       0xb0 ../D8M_Camera_Test_bsp//newlib/nios2-elf/lib/libc.a(lib_a-mprec.o)
 .debug_aranges
                0x0000000000000780       0x20 ../D8M_Camera_Test_bsp//newlib/nios2-elf/lib/libc.a(lib_a-reallocr.o)
 .debug_aranges
                0x00000000000007a0       0x28 ../D8M_Camera_Test_bsp//newlib/nios2-elf/lib/libc.a(lib_a-refill.o)
 .debug_aranges
                0x00000000000007c8       0x20 ../D8M_Camera_Test_bsp//newlib/nios2-elf/lib/libc.a(lib_a-s_fpclassify.o)
 .debug_aranges
                0x00000000000007e8       0x40 ../D8M_Camera_Test_bsp//newlib/nios2-elf/lib/libc.a(lib_a-stdio.o)
 .debug_aranges
                0x0000000000000828       0x20 ../D8M_Camera_Test_bsp//newlib/nios2-elf/lib/libc.a(lib_a-strcmp.o)
 .debug_aranges
                0x0000000000000848       0x38 ../D8M_Camera_Test_bsp//newlib/nios2-elf/lib/libc.a(lib_a-vfiprintf.o)
 .debug_aranges
                0x0000000000000880       0x20 ../D8M_Camera_Test_bsp//newlib/nios2-elf/lib/libc.a(lib_a-writer.o)
 .debug_aranges
                0x00000000000008a0       0x20 ../D8M_Camera_Test_bsp//newlib/nios2-elf/lib/libc.a(closer.o)
 .debug_aranges
                0x00000000000008c0       0x20 ../D8M_Camera_Test_bsp//newlib/nios2-elf/lib/libc.a(lib_a-callocr.o)
 .debug_aranges
                0x00000000000008e0       0x28 ../D8M_Camera_Test_bsp//newlib/nios2-elf/lib/libc.a(lib_a-fclose.o)
 .debug_aranges
                0x0000000000000908       0x30 ../D8M_Camera_Test_bsp//newlib/nios2-elf/lib/libc.a(lib_a-fputwc.o)
 .debug_aranges
                0x0000000000000938       0x20 ../D8M_Camera_Test_bsp//newlib/nios2-elf/lib/libc.a(lib_a-fstatr.o)
 .debug_aranges
                0x0000000000000958       0x20 ../D8M_Camera_Test_bsp//newlib/nios2-elf/lib/libc.a(lib_a-isattyr.o)
 .debug_aranges
                0x0000000000000978       0x20 ../D8M_Camera_Test_bsp//newlib/nios2-elf/lib/libc.a(lib_a-lseekr.o)
 .debug_aranges
                0x0000000000000998       0x20 ../D8M_Camera_Test_bsp//newlib/nios2-elf/lib/libc.a(lib_a-readr.o)
 .debug_aranges
                0x00000000000009b8       0x28 ../D8M_Camera_Test_bsp//newlib/nios2-elf/lib/libc.a(lib_a-wcrtomb.o)
 .debug_aranges
                0x00000000000009e0       0x28 ../D8M_Camera_Test_bsp//newlib/nios2-elf/lib/libc.a(lib_a-wctomb_r.o)
 .debug_aranges
                0x0000000000000a08       0x20 /home/georgech/intelFPGA_lite/16.1/nios2eds/bin/gnu/H-x86_64-pc-linux-gnu/bin/../lib/gcc/nios2-elf/5.3.0/libgcc.a(_udivdi3.o)
 .debug_aranges
                0x0000000000000a28       0x20 /home/georgech/intelFPGA_lite/16.1/nios2eds/bin/gnu/H-x86_64-pc-linux-gnu/bin/../lib/gcc/nios2-elf/5.3.0/libgcc.a(_umoddi3.o)
 .debug_aranges
                0x0000000000000a48       0x20 /home/georgech/intelFPGA_lite/16.1/nios2eds/bin/gnu/H-x86_64-pc-linux-gnu/bin/../lib/gcc/nios2-elf/5.3.0/libgcc.a(lib2-divmod.o)
 .debug_aranges
                0x0000000000000a68       0x20 /home/georgech/intelFPGA_lite/16.1/nios2eds/bin/gnu/H-x86_64-pc-linux-gnu/bin/../lib/gcc/nios2-elf/5.3.0/libgcc.a(divdf3.o)
 .debug_aranges
                0x0000000000000a88       0x20 /home/georgech/intelFPGA_lite/16.1/nios2eds/bin/gnu/H-x86_64-pc-linux-gnu/bin/../lib/gcc/nios2-elf/5.3.0/libgcc.a(eqdf2.o)
 .debug_aranges
                0x0000000000000aa8       0x20 /home/georgech/intelFPGA_lite/16.1/nios2eds/bin/gnu/H-x86_64-pc-linux-gnu/bin/../lib/gcc/nios2-elf/5.3.0/libgcc.a(gedf2.o)
 .debug_aranges
                0x0000000000000ac8       0x20 /home/georgech/intelFPGA_lite/16.1/nios2eds/bin/gnu/H-x86_64-pc-linux-gnu/bin/../lib/gcc/nios2-elf/5.3.0/libgcc.a(ledf2.o)
 .debug_aranges
                0x0000000000000ae8       0x20 /home/georgech/intelFPGA_lite/16.1/nios2eds/bin/gnu/H-x86_64-pc-linux-gnu/bin/../lib/gcc/nios2-elf/5.3.0/libgcc.a(subdf3.o)
 .debug_aranges
                0x0000000000000b08       0x20 /home/georgech/intelFPGA_lite/16.1/nios2eds/bin/gnu/H-x86_64-pc-linux-gnu/bin/../lib/gcc/nios2-elf/5.3.0/libgcc.a(fixdfsi.o)
 .debug_aranges
                0x0000000000000b28       0x20 /home/georgech/intelFPGA_lite/16.1/nios2eds/bin/gnu/H-x86_64-pc-linux-gnu/bin/../lib/gcc/nios2-elf/5.3.0/libgcc.a(floatunsidf.o)
 .debug_aranges
                0x0000000000000b48       0x20 ../D8M_Camera_Test_bsp//libhal_bsp.a(alt_close.o)
 .debug_aranges
                0x0000000000000b68       0x20 ../D8M_Camera_Test_bsp//libhal_bsp.a(alt_dev.o)
 .debug_aranges
                0x0000000000000b88       0x18 ../D8M_Camera_Test_bsp//libhal_bsp.a(alt_errno.o)
 .debug_aranges
                0x0000000000000ba0       0x20 ../D8M_Camera_Test_bsp//libhal_bsp.a(alt_fcntl.o)
 .debug_aranges
                0x0000000000000bc0       0x20 ../D8M_Camera_Test_bsp//libhal_bsp.a(alt_fstat.o)
 .debug_aranges
                0x0000000000000be0       0x20 ../D8M_Camera_Test_bsp//libhal_bsp.a(alt_isatty.o)
 .debug_aranges
                0x0000000000000c00       0x20 ../D8M_Camera_Test_bsp//libhal_bsp.a(alt_load.o)
 .debug_aranges
                0x0000000000000c20       0x20 ../D8M_Camera_Test_bsp//libhal_bsp.a(alt_lseek.o)
 .debug_aranges
                0x0000000000000c40       0x20 ../D8M_Camera_Test_bsp//libhal_bsp.a(alt_main.o)
 .debug_aranges
                0x0000000000000c60       0x20 ../D8M_Camera_Test_bsp//libhal_bsp.a(alt_malloc_lock.o)
 .debug_aranges
                0x0000000000000c80       0x20 ../D8M_Camera_Test_bsp//libhal_bsp.a(alt_read.o)
 .debug_aranges
                0x0000000000000ca0       0x20 ../D8M_Camera_Test_bsp//libhal_bsp.a(alt_release_fd.o)
 .debug_aranges
                0x0000000000000cc0       0x20 ../D8M_Camera_Test_bsp//libhal_bsp.a(alt_sbrk.o)
 .debug_aranges
                0x0000000000000ce0       0x20 ../D8M_Camera_Test_bsp//libhal_bsp.a(alt_tick.o)
 .debug_aranges
                0x0000000000000d00       0x20 ../D8M_Camera_Test_bsp//libhal_bsp.a(alt_usleep.o)
 .debug_aranges
                0x0000000000000d20       0x20 ../D8M_Camera_Test_bsp//libhal_bsp.a(alt_write.o)
 .debug_aranges
                0x0000000000000d40       0x20 ../D8M_Camera_Test_bsp//libhal_bsp.a(alt_sys_init.o)
 .debug_aranges
                0x0000000000000d60       0x20 ../D8M_Camera_Test_bsp//libhal_bsp.a(altera_avalon_jtag_uart_fd.o)
 .debug_aranges
                0x0000000000000d80       0x20 ../D8M_Camera_Test_bsp//libhal_bsp.a(altera_avalon_jtag_uart_init.o)
 .debug_aranges
                0x0000000000000da0       0x20 ../D8M_Camera_Test_bsp//libhal_bsp.a(altera_avalon_jtag_uart_ioctl.o)
 .debug_aranges
                0x0000000000000dc0       0x20 ../D8M_Camera_Test_bsp//libhal_bsp.a(altera_avalon_jtag_uart_read.o)
 .debug_aranges
                0x0000000000000de0       0x20 ../D8M_Camera_Test_bsp//libhal_bsp.a(altera_avalon_jtag_uart_write.o)
 .debug_aranges
                0x0000000000000e00       0x20 ../D8M_Camera_Test_bsp//libhal_bsp.a(altera_avalon_timer_sc.o)
 .debug_aranges
                0x0000000000000e20       0x20 ../D8M_Camera_Test_bsp//libhal_bsp.a(altera_avalon_uart_fd.o)
 .debug_aranges
                0x0000000000000e40       0x20 ../D8M_Camera_Test_bsp//libhal_bsp.a(altera_avalon_uart_init.o)
 .debug_aranges
                0x0000000000000e60       0x20 ../D8M_Camera_Test_bsp//libhal_bsp.a(altera_avalon_uart_read.o)
 .debug_aranges
                0x0000000000000e80       0x20 ../D8M_Camera_Test_bsp//libhal_bsp.a(altera_avalon_uart_write.o)
 .debug_aranges
                0x0000000000000ea0       0x20 ../D8M_Camera_Test_bsp//libhal_bsp.a(alt_alarm_start.o)
 .debug_aranges
                0x0000000000000ec0       0x20 ../D8M_Camera_Test_bsp//libhal_bsp.a(alt_busy_sleep.o)
 .debug_aranges
                0x0000000000000ee0       0x20 ../D8M_Camera_Test_bsp//libhal_bsp.a(alt_dcache_flush_all.o)
 .debug_aranges
                0x0000000000000f00       0x20 ../D8M_Camera_Test_bsp//libhal_bsp.a(alt_dev_llist_insert.o)
 .debug_aranges
                0x0000000000000f20       0x20 ../D8M_Camera_Test_bsp//libhal_bsp.a(alt_do_ctors.o)
 .debug_aranges
                0x0000000000000f40       0x20 ../D8M_Camera_Test_bsp//libhal_bsp.a(alt_do_dtors.o)
 .debug_aranges
                0x0000000000000f60       0x20 ../D8M_Camera_Test_bsp//libhal_bsp.a(alt_icache_flush_all.o)
 .debug_aranges
                0x0000000000000f80       0x20 ../D8M_Camera_Test_bsp//libhal_bsp.a(alt_iic.o)
 .debug_aranges
                0x0000000000000fa0       0x20 ../D8M_Camera_Test_bsp//libhal_bsp.a(alt_iic_isr_register.o)
 .debug_aranges
                0x0000000000000fc0       0x20 ../D8M_Camera_Test_bsp//libhal_bsp.a(alt_io_redirect.o)
 .debug_aranges
                0x0000000000000fe0       0x30 ../D8M_Camera_Test_bsp//libhal_bsp.a(alt_irq_entry.o)
 .debug_aranges
                0x0000000000001010       0x20 ../D8M_Camera_Test_bsp//libhal_bsp.a(alt_irq_handler.o)
 .debug_aranges
                0x0000000000001030       0x18 ../D8M_Camera_Test_bsp//libhal_bsp.a(alt_irq_vars.o)
 .debug_aranges
                0x0000000000001048       0x20 ../D8M_Camera_Test_bsp//libhal_bsp.a(alt_open.o)
 .debug_aranges
                0x0000000000001068       0x20 ../D8M_Camera_Test_bsp//libhal_bsp.a(altera_nios2_gen2_irq.o)
 .debug_aranges
                0x0000000000001088       0x38 ../D8M_Camera_Test_bsp//libhal_bsp.a(alt_exception_entry.o)
 .debug_aranges
                0x00000000000010c0       0x20 ../D8M_Camera_Test_bsp//libhal_bsp.a(alt_find_dev.o)
 .debug_aranges
                0x00000000000010e0       0x20 ../D8M_Camera_Test_bsp//libhal_bsp.a(alt_find_file.o)
 .debug_aranges
                0x0000000000001100       0x20 ../D8M_Camera_Test_bsp//libhal_bsp.a(alt_get_fd.o)
 .debug_aranges
                0x0000000000001120       0x20 ../D8M_Camera_Test_bsp//libhal_bsp.a(alt_icache_flush.o)
 .debug_aranges
                0x0000000000001140       0x28 ../D8M_Camera_Test_bsp//libhal_bsp.a(alt_instruction_exception_entry.o)
 .debug_aranges
                0x0000000000001168       0x20 ../D8M_Camera_Test_bsp//newlib/nios2-elf/lib/libc.a(lib_a-atexit.o)
 .debug_aranges
                0x0000000000001188       0x20 ../D8M_Camera_Test_bsp//newlib/nios2-elf/lib/libc.a(lib_a-exit.o)
 .debug_aranges
                0x00000000000011a8       0x20 ../D8M_Camera_Test_bsp//newlib/nios2-elf/lib/libc.a(lib_a-memcmp.o)
 .debug_aranges
                0x00000000000011c8       0x20 ../D8M_Camera_Test_bsp//newlib/nios2-elf/lib/libc.a(lib_a-__atexit.o)
 .debug_aranges
                0x00000000000011e8       0x20 ../D8M_Camera_Test_bsp//newlib/nios2-elf/lib/libc.a(lib_a-__call_atexit.o)
 .debug_aranges
                0x0000000000001208       0x20 ../D8M_Camera_Test_bsp//libhal_bsp.a(alt_exit.o)

.debug_pubnames
 *(.debug_pubnames)

.debug_info     0x0000000000000000    0x2b885
 *(.debug_info .gnu.linkonce.wi.*)
 .debug_info    0x0000000000000000       0x7f ../D8M_Camera_Test_bsp//obj/HAL/src/crt0.o
 .debug_info    0x000000000000007f      0x8a8 obj/default/1.o
 .debug_info    0x0000000000000927      0x68d obj/default/I2C_core.o
 .debug_info    0x0000000000000fb4      0x277 obj/default/auto_focus.o
 .debug_info    0x000000000000122b      0xb35 obj/default/main.o
 .debug_info    0x0000000000001d60      0xa5c obj/default/mipi_bridge_config.o
 .debug_info    0x00000000000027bc      0xca2 obj/default/mipi_camera_config.o
 .debug_info    0x000000000000345e      0x9ec obj/default/mipi_helpers.o
 .debug_info    0x0000000000003e4a      0x2bb obj/default/queue.o
 .debug_info    0x0000000000004105      0x4a2 /home/georgech/intelFPGA_lite/16.1/nios2eds/bin/gnu/H-x86_64-pc-linux-gnu/bin/../lib/gcc/nios2-elf/5.3.0/libgcc.a(adddf3.o)
 .debug_info    0x00000000000045a7      0x5f5 /home/georgech/intelFPGA_lite/16.1/nios2eds/bin/gnu/H-x86_64-pc-linux-gnu/bin/../lib/gcc/nios2-elf/5.3.0/libgcc.a(muldf3.o)
 .debug_info    0x0000000000004b9c      0x1bc /home/georgech/intelFPGA_lite/16.1/nios2eds/bin/gnu/H-x86_64-pc-linux-gnu/bin/../lib/gcc/nios2-elf/5.3.0/libgcc.a(floatsidf.o)
 .debug_info    0x0000000000004d58      0x248 /home/georgech/intelFPGA_lite/16.1/nios2eds/bin/gnu/H-x86_64-pc-linux-gnu/bin/../lib/gcc/nios2-elf/5.3.0/libgcc.a(extendsfdf2.o)
 .debug_info    0x0000000000004fa0      0x248 /home/georgech/intelFPGA_lite/16.1/nios2eds/bin/gnu/H-x86_64-pc-linux-gnu/bin/../lib/gcc/nios2-elf/5.3.0/libgcc.a(truncdfsf2.o)
 .debug_info    0x00000000000051e8      0x124 /home/georgech/intelFPGA_lite/16.1/nios2eds/bin/gnu/H-x86_64-pc-linux-gnu/bin/../lib/gcc/nios2-elf/5.3.0/libgcc.a(_clzsi2.o)
 .debug_info    0x000000000000530c       0xb2 /home/georgech/intelFPGA_lite/16.1/nios2eds/bin/gnu/H-x86_64-pc-linux-gnu/bin/../lib/gcc/nios2-elf/5.3.0/libgcc.a(_clz.o)
 .debug_info    0x00000000000053be      0x954 ../D8M_Camera_Test_bsp//newlib/nios2-elf/lib/libc.a(lib_a-fprintf.o)
 .debug_info    0x0000000000005d12      0x960 ../D8M_Camera_Test_bsp//newlib/nios2-elf/lib/libc.a(lib_a-fputc.o)
 .debug_info    0x0000000000006672      0x9f6 ../D8M_Camera_Test_bsp//newlib/nios2-elf/lib/libc.a(lib_a-fwrite.o)
 .debug_info    0x0000000000007068      0x942 ../D8M_Camera_Test_bsp//newlib/nios2-elf/lib/libc.a(lib_a-getc.o)
 .debug_info    0x00000000000079aa      0x89d ../D8M_Camera_Test_bsp//newlib/nios2-elf/lib/libc.a(lib_a-impure.o)
 .debug_info    0x0000000000008247      0x8d3 ../D8M_Camera_Test_bsp//newlib/nios2-elf/lib/libc.a(lib_a-malloc.o)
 .debug_info    0x0000000000008b1a      0xbcb ../D8M_Camera_Test_bsp//newlib/nios2-elf/lib/libc.a(lib_a-mallocr.o)
 .debug_info    0x00000000000096e5      0x114 ../D8M_Camera_Test_bsp//newlib/nios2-elf/lib/libc.a(lib_a-memset.o)
 .debug_info    0x00000000000097f9      0x942 ../D8M_Camera_Test_bsp//newlib/nios2-elf/lib/libc.a(lib_a-printf.o)
 .debug_info    0x000000000000a13b      0x95a ../D8M_Camera_Test_bsp//newlib/nios2-elf/lib/libc.a(lib_a-putc.o)
 .debug_info    0x000000000000aa95      0x9c1 ../D8M_Camera_Test_bsp//newlib/nios2-elf/lib/libc.a(lib_a-puts.o)
 .debug_info    0x000000000000b456      0x900 ../D8M_Camera_Test_bsp//newlib/nios2-elf/lib/libc.a(lib_a-rget.o)
 .debug_info    0x000000000000bd56      0x8db ../D8M_Camera_Test_bsp//newlib/nios2-elf/lib/libc.a(lib_a-sbrkr.o)
 .debug_info    0x000000000000c631       0xdd ../D8M_Camera_Test_bsp//newlib/nios2-elf/lib/libc.a(lib_a-strlen.o)
 .debug_info    0x000000000000c70e      0xfab ../D8M_Camera_Test_bsp//newlib/nios2-elf/lib/libc.a(lib_a-vfprintf.o)
 .debug_info    0x000000000000d6b9      0x921 ../D8M_Camera_Test_bsp//newlib/nios2-elf/lib/libc.a(lib_a-wbuf.o)
 .debug_info    0x000000000000dfda      0x8d9 ../D8M_Camera_Test_bsp//newlib/nios2-elf/lib/libc.a(lib_a-wsetup.o)
 .debug_info    0x000000000000e8b3      0xcca ../D8M_Camera_Test_bsp//newlib/nios2-elf/lib/libc.a(lib_a-dtoa.o)
 .debug_info    0x000000000000f57d      0x9c0 ../D8M_Camera_Test_bsp//newlib/nios2-elf/lib/libc.a(lib_a-fflush.o)
 .debug_info    0x000000000000ff3d      0xbae ../D8M_Camera_Test_bsp//newlib/nios2-elf/lib/libc.a(lib_a-findfp.o)
 .debug_info    0x0000000000010aeb      0xb01 ../D8M_Camera_Test_bsp//newlib/nios2-elf/lib/libc.a(lib_a-freer.o)
 .debug_info    0x00000000000115ec      0x9da ../D8M_Camera_Test_bsp//newlib/nios2-elf/lib/libc.a(lib_a-fvwrite.o)
 .debug_info    0x0000000000011fc6      0x978 ../D8M_Camera_Test_bsp//newlib/nios2-elf/lib/libc.a(lib_a-fwalk.o)
 .debug_info    0x000000000001293e       0x86 ../D8M_Camera_Test_bsp//newlib/nios2-elf/lib/libc.a(lib_a-int_errno.o)
 .debug_info    0x00000000000129c4      0xb5c ../D8M_Camera_Test_bsp//newlib/nios2-elf/lib/libc.a(lib_a-locale.o)
 .debug_info    0x0000000000013520      0xa51 ../D8M_Camera_Test_bsp//newlib/nios2-elf/lib/libc.a(lib_a-makebuf.o)
 .debug_info    0x0000000000013f71      0x126 ../D8M_Camera_Test_bsp//newlib/nios2-elf/lib/libc.a(lib_a-memchr.o)
 .debug_info    0x0000000000014097      0x139 ../D8M_Camera_Test_bsp//newlib/nios2-elf/lib/libc.a(lib_a-memcpy.o)
 .debug_info    0x00000000000141d0      0x12f ../D8M_Camera_Test_bsp//newlib/nios2-elf/lib/libc.a(lib_a-memmove.o)
 .debug_info    0x00000000000142ff     0x12f1 ../D8M_Camera_Test_bsp//newlib/nios2-elf/lib/libc.a(lib_a-mprec.o)
 .debug_info    0x00000000000155f0      0xb38 ../D8M_Camera_Test_bsp//newlib/nios2-elf/lib/libc.a(lib_a-reallocr.o)
 .debug_info    0x0000000000016128      0x91c ../D8M_Camera_Test_bsp//newlib/nios2-elf/lib/libc.a(lib_a-refill.o)
 .debug_info    0x0000000000016a44      0x13e ../D8M_Camera_Test_bsp//newlib/nios2-elf/lib/libc.a(lib_a-s_fpclassify.o)
 .debug_info    0x0000000000016b82      0xa64 ../D8M_Camera_Test_bsp//newlib/nios2-elf/lib/libc.a(lib_a-stdio.o)
 .debug_info    0x00000000000175e6       0xdc ../D8M_Camera_Test_bsp//newlib/nios2-elf/lib/libc.a(lib_a-strcmp.o)
 .debug_info    0x00000000000176c2      0xdc6 ../D8M_Camera_Test_bsp//newlib/nios2-elf/lib/libc.a(lib_a-vfiprintf.o)
 .debug_info    0x0000000000018488      0x8f7 ../D8M_Camera_Test_bsp//newlib/nios2-elf/lib/libc.a(lib_a-writer.o)
 .debug_info    0x0000000000018d7f      0x8be ../D8M_Camera_Test_bsp//newlib/nios2-elf/lib/libc.a(closer.o)
 .debug_info    0x000000000001963d      0x983 ../D8M_Camera_Test_bsp//newlib/nios2-elf/lib/libc.a(lib_a-callocr.o)
 .debug_info    0x0000000000019fc0      0x90c ../D8M_Camera_Test_bsp//newlib/nios2-elf/lib/libc.a(lib_a-fclose.o)
 .debug_info    0x000000000001a8cc      0x9b5 ../D8M_Camera_Test_bsp//newlib/nios2-elf/lib/libc.a(lib_a-fputwc.o)
 .debug_info    0x000000000001b281      0xa34 ../D8M_Camera_Test_bsp//newlib/nios2-elf/lib/libc.a(lib_a-fstatr.o)
 .debug_info    0x000000000001bcb5      0x8be ../D8M_Camera_Test_bsp//newlib/nios2-elf/lib/libc.a(lib_a-isattyr.o)
 .debug_info    0x000000000001c573      0x8da ../D8M_Camera_Test_bsp//newlib/nios2-elf/lib/libc.a(lib_a-lseekr.o)
 .debug_info    0x000000000001ce4d      0x8f0 ../D8M_Camera_Test_bsp//newlib/nios2-elf/lib/libc.a(lib_a-readr.o)
 .debug_info    0x000000000001d73d      0x9c6 ../D8M_Camera_Test_bsp//newlib/nios2-elf/lib/libc.a(lib_a-wcrtomb.o)
 .debug_info    0x000000000001e103      0x98a ../D8M_Camera_Test_bsp//newlib/nios2-elf/lib/libc.a(lib_a-wctomb_r.o)
 .debug_info    0x000000000001ea8d      0x70e /home/georgech/intelFPGA_lite/16.1/nios2eds/bin/gnu/H-x86_64-pc-linux-gnu/bin/../lib/gcc/nios2-elf/5.3.0/libgcc.a(_udivdi3.o)
 .debug_info    0x000000000001f19b      0x765 /home/georgech/intelFPGA_lite/16.1/nios2eds/bin/gnu/H-x86_64-pc-linux-gnu/bin/../lib/gcc/nios2-elf/5.3.0/libgcc.a(_umoddi3.o)
 .debug_info    0x000000000001f900      0x2c6 /home/georgech/intelFPGA_lite/16.1/nios2eds/bin/gnu/H-x86_64-pc-linux-gnu/bin/../lib/gcc/nios2-elf/5.3.0/libgcc.a(lib2-divmod.o)
 .debug_info    0x000000000001fbc6      0x5c7 /home/georgech/intelFPGA_lite/16.1/nios2eds/bin/gnu/H-x86_64-pc-linux-gnu/bin/../lib/gcc/nios2-elf/5.3.0/libgcc.a(divdf3.o)
 .debug_info    0x000000000002018d      0x1e2 /home/georgech/intelFPGA_lite/16.1/nios2eds/bin/gnu/H-x86_64-pc-linux-gnu/bin/../lib/gcc/nios2-elf/5.3.0/libgcc.a(eqdf2.o)
 .debug_info    0x000000000002036f      0x202 /home/georgech/intelFPGA_lite/16.1/nios2eds/bin/gnu/H-x86_64-pc-linux-gnu/bin/../lib/gcc/nios2-elf/5.3.0/libgcc.a(gedf2.o)
 .debug_info    0x0000000000020571      0x204 /home/georgech/intelFPGA_lite/16.1/nios2eds/bin/gnu/H-x86_64-pc-linux-gnu/bin/../lib/gcc/nios2-elf/5.3.0/libgcc.a(ledf2.o)
 .debug_info    0x0000000000020775      0x4a2 /home/georgech/intelFPGA_lite/16.1/nios2eds/bin/gnu/H-x86_64-pc-linux-gnu/bin/../lib/gcc/nios2-elf/5.3.0/libgcc.a(subdf3.o)
 .debug_info    0x0000000000020c17      0x1ae /home/georgech/intelFPGA_lite/16.1/nios2eds/bin/gnu/H-x86_64-pc-linux-gnu/bin/../lib/gcc/nios2-elf/5.3.0/libgcc.a(fixdfsi.o)
 .debug_info    0x0000000000020dc5      0x1b0 /home/georgech/intelFPGA_lite/16.1/nios2eds/bin/gnu/H-x86_64-pc-linux-gnu/bin/../lib/gcc/nios2-elf/5.3.0/libgcc.a(floatunsidf.o)
 .debug_info    0x0000000000020f75      0x361 ../D8M_Camera_Test_bsp//libhal_bsp.a(alt_close.o)
 .debug_info    0x00000000000212d6      0x499 ../D8M_Camera_Test_bsp//libhal_bsp.a(alt_dev.o)
 .debug_info    0x000000000002176f       0xa6 ../D8M_Camera_Test_bsp//libhal_bsp.a(alt_errno.o)
 .debug_info    0x0000000000021815      0x4e3 ../D8M_Camera_Test_bsp//libhal_bsp.a(alt_fcntl.o)
 .debug_info    0x0000000000021cf8      0x49e ../D8M_Camera_Test_bsp//libhal_bsp.a(alt_fstat.o)
 .debug_info    0x0000000000022196      0x4af ../D8M_Camera_Test_bsp//libhal_bsp.a(alt_isatty.o)
 .debug_info    0x0000000000022645      0x1ed ../D8M_Camera_Test_bsp//libhal_bsp.a(alt_load.o)
 .debug_info    0x0000000000022832      0x371 ../D8M_Camera_Test_bsp//libhal_bsp.a(alt_lseek.o)
 .debug_info    0x0000000000022ba3      0x20d ../D8M_Camera_Test_bsp//libhal_bsp.a(alt_main.o)
 .debug_info    0x0000000000022db0      0x8a2 ../D8M_Camera_Test_bsp//libhal_bsp.a(alt_malloc_lock.o)
 .debug_info    0x0000000000023652      0x4ed ../D8M_Camera_Test_bsp//libhal_bsp.a(alt_read.o)
 .debug_info    0x0000000000023b3f      0x2b1 ../D8M_Camera_Test_bsp//libhal_bsp.a(alt_release_fd.o)
 .debug_info    0x0000000000023df0      0x1b0 ../D8M_Camera_Test_bsp//libhal_bsp.a(alt_sbrk.o)
 .debug_info    0x0000000000023fa0      0x327 ../D8M_Camera_Test_bsp//libhal_bsp.a(alt_tick.o)
 .debug_info    0x00000000000242c7       0xd1 ../D8M_Camera_Test_bsp//libhal_bsp.a(alt_usleep.o)
 .debug_info    0x0000000000024398      0x4f4 ../D8M_Camera_Test_bsp//libhal_bsp.a(alt_write.o)
 .debug_info    0x000000000002488c      0x6cf ../D8M_Camera_Test_bsp//libhal_bsp.a(alt_sys_init.o)
 .debug_info    0x0000000000024f5b      0x5b9 ../D8M_Camera_Test_bsp//libhal_bsp.a(altera_avalon_jtag_uart_fd.o)
 .debug_info    0x0000000000025514      0x3f8 ../D8M_Camera_Test_bsp//libhal_bsp.a(altera_avalon_jtag_uart_init.o)
 .debug_info    0x000000000002590c      0x281 ../D8M_Camera_Test_bsp//libhal_bsp.a(altera_avalon_jtag_uart_ioctl.o)
 .debug_info    0x0000000000025b8d      0x363 ../D8M_Camera_Test_bsp//libhal_bsp.a(altera_avalon_jtag_uart_read.o)
 .debug_info    0x0000000000025ef0      0x362 ../D8M_Camera_Test_bsp//libhal_bsp.a(altera_avalon_jtag_uart_write.o)
 .debug_info    0x0000000000026252      0x270 ../D8M_Camera_Test_bsp//libhal_bsp.a(altera_avalon_timer_sc.o)
 .debug_info    0x00000000000264c2      0x4ab ../D8M_Camera_Test_bsp//libhal_bsp.a(altera_avalon_uart_fd.o)
 .debug_info    0x000000000002696d      0x37b ../D8M_Camera_Test_bsp//libhal_bsp.a(altera_avalon_uart_init.o)
 .debug_info    0x0000000000026ce8      0x317 ../D8M_Camera_Test_bsp//libhal_bsp.a(altera_avalon_uart_read.o)
 .debug_info    0x0000000000026fff      0x320 ../D8M_Camera_Test_bsp//libhal_bsp.a(altera_avalon_uart_write.o)
 .debug_info    0x000000000002731f      0x2bd ../D8M_Camera_Test_bsp//libhal_bsp.a(alt_alarm_start.o)
 .debug_info    0x00000000000275dc       0xd6 ../D8M_Camera_Test_bsp//libhal_bsp.a(alt_busy_sleep.o)
 .debug_info    0x00000000000276b2       0xa6 ../D8M_Camera_Test_bsp//libhal_bsp.a(alt_dcache_flush_all.o)
 .debug_info    0x0000000000027758      0x1b7 ../D8M_Camera_Test_bsp//libhal_bsp.a(alt_dev_llist_insert.o)
 .debug_info    0x000000000002790f       0x84 ../D8M_Camera_Test_bsp//libhal_bsp.a(alt_do_ctors.o)
 .debug_info    0x0000000000027993       0x84 ../D8M_Camera_Test_bsp//libhal_bsp.a(alt_do_dtors.o)
 .debug_info    0x0000000000027a17       0xb8 ../D8M_Camera_Test_bsp//libhal_bsp.a(alt_icache_flush_all.o)
 .debug_info    0x0000000000027acf      0x38a ../D8M_Camera_Test_bsp//libhal_bsp.a(alt_iic.o)
 .debug_info    0x0000000000027e59      0x232 ../D8M_Camera_Test_bsp//libhal_bsp.a(alt_iic_isr_register.o)
 .debug_info    0x000000000002808b      0x5e6 ../D8M_Camera_Test_bsp//libhal_bsp.a(alt_io_redirect.o)
 .debug_info    0x0000000000028671       0x88 ../D8M_Camera_Test_bsp//libhal_bsp.a(alt_irq_entry.o)
 .debug_info    0x00000000000286f9      0x184 ../D8M_Camera_Test_bsp//libhal_bsp.a(alt_irq_handler.o)
 .debug_info    0x000000000002887d       0x88 ../D8M_Camera_Test_bsp//libhal_bsp.a(alt_irq_vars.o)
 .debug_info    0x0000000000028905      0x48e ../D8M_Camera_Test_bsp//libhal_bsp.a(alt_open.o)
 .debug_info    0x0000000000028d93       0x92 ../D8M_Camera_Test_bsp//libhal_bsp.a(altera_nios2_gen2_irq.o)
 .debug_info    0x0000000000028e25       0x8e ../D8M_Camera_Test_bsp//libhal_bsp.a(alt_exception_entry.o)
 .debug_info    0x0000000000028eb3      0x32d ../D8M_Camera_Test_bsp//libhal_bsp.a(alt_find_dev.o)
 .debug_info    0x00000000000291e0      0x318 ../D8M_Camera_Test_bsp//libhal_bsp.a(alt_find_file.o)
 .debug_info    0x00000000000294f8      0x311 ../D8M_Camera_Test_bsp//libhal_bsp.a(alt_get_fd.o)
 .debug_info    0x0000000000029809       0xde ../D8M_Camera_Test_bsp//libhal_bsp.a(alt_icache_flush.o)
 .debug_info    0x00000000000298e7      0x1f8 ../D8M_Camera_Test_bsp//libhal_bsp.a(alt_instruction_exception_entry.o)
 .debug_info    0x0000000000029adf       0xca ../D8M_Camera_Test_bsp//newlib/nios2-elf/lib/libc.a(lib_a-atexit.o)
 .debug_info    0x0000000000029ba9      0x8a0 ../D8M_Camera_Test_bsp//newlib/nios2-elf/lib/libc.a(lib_a-exit.o)
 .debug_info    0x000000000002a449      0x10f ../D8M_Camera_Test_bsp//newlib/nios2-elf/lib/libc.a(lib_a-memcmp.o)
 .debug_info    0x000000000002a558      0x90d ../D8M_Camera_Test_bsp//newlib/nios2-elf/lib/libc.a(lib_a-__atexit.o)
 .debug_info    0x000000000002ae65      0x936 ../D8M_Camera_Test_bsp//newlib/nios2-elf/lib/libc.a(lib_a-__call_atexit.o)
 .debug_info    0x000000000002b79b       0xea ../D8M_Camera_Test_bsp//libhal_bsp.a(alt_exit.o)

.debug_abbrev   0x0000000000000000     0xaf12
 *(.debug_abbrev)
 .debug_abbrev  0x0000000000000000       0x12 ../D8M_Camera_Test_bsp//obj/HAL/src/crt0.o
 .debug_abbrev  0x0000000000000012      0x1ad obj/default/1.o
 .debug_abbrev  0x00000000000001bf      0x138 obj/default/I2C_core.o
 .debug_abbrev  0x00000000000002f7       0xf9 obj/default/auto_focus.o
 .debug_abbrev  0x00000000000003f0      0x220 obj/default/main.o
 .debug_abbrev  0x0000000000000610      0x22a obj/default/mipi_bridge_config.o
 .debug_abbrev  0x000000000000083a      0x240 obj/default/mipi_camera_config.o
 .debug_abbrev  0x0000000000000a7a      0x1f7 obj/default/mipi_helpers.o
 .debug_abbrev  0x0000000000000c71      0x135 obj/default/queue.o
 .debug_abbrev  0x0000000000000da6      0x13a /home/georgech/intelFPGA_lite/16.1/nios2eds/bin/gnu/H-x86_64-pc-linux-gnu/bin/../lib/gcc/nios2-elf/5.3.0/libgcc.a(adddf3.o)
 .debug_abbrev  0x0000000000000ee0      0x13f /home/georgech/intelFPGA_lite/16.1/nios2eds/bin/gnu/H-x86_64-pc-linux-gnu/bin/../lib/gcc/nios2-elf/5.3.0/libgcc.a(muldf3.o)
 .debug_abbrev  0x000000000000101f      0x124 /home/georgech/intelFPGA_lite/16.1/nios2eds/bin/gnu/H-x86_64-pc-linux-gnu/bin/../lib/gcc/nios2-elf/5.3.0/libgcc.a(floatsidf.o)
 .debug_abbrev  0x0000000000001143      0x124 /home/georgech/intelFPGA_lite/16.1/nios2eds/bin/gnu/H-x86_64-pc-linux-gnu/bin/../lib/gcc/nios2-elf/5.3.0/libgcc.a(extendsfdf2.o)
 .debug_abbrev  0x0000000000001267      0x11b /home/georgech/intelFPGA_lite/16.1/nios2eds/bin/gnu/H-x86_64-pc-linux-gnu/bin/../lib/gcc/nios2-elf/5.3.0/libgcc.a(truncdfsf2.o)
 .debug_abbrev  0x0000000000001382       0xbe /home/georgech/intelFPGA_lite/16.1/nios2eds/bin/gnu/H-x86_64-pc-linux-gnu/bin/../lib/gcc/nios2-elf/5.3.0/libgcc.a(_clzsi2.o)
 .debug_abbrev  0x0000000000001440       0x5d /home/georgech/intelFPGA_lite/16.1/nios2eds/bin/gnu/H-x86_64-pc-linux-gnu/bin/../lib/gcc/nios2-elf/5.3.0/libgcc.a(_clz.o)
 .debug_abbrev  0x000000000000149d      0x1da ../D8M_Camera_Test_bsp//newlib/nios2-elf/lib/libc.a(lib_a-fprintf.o)
 .debug_abbrev  0x0000000000001677      0x1f0 ../D8M_Camera_Test_bsp//newlib/nios2-elf/lib/libc.a(lib_a-fputc.o)
 .debug_abbrev  0x0000000000001867      0x20b ../D8M_Camera_Test_bsp//newlib/nios2-elf/lib/libc.a(lib_a-fwrite.o)
 .debug_abbrev  0x0000000000001a72      0x1e1 ../D8M_Camera_Test_bsp//newlib/nios2-elf/lib/libc.a(lib_a-getc.o)
 .debug_abbrev  0x0000000000001c53      0x18d ../D8M_Camera_Test_bsp//newlib/nios2-elf/lib/libc.a(lib_a-impure.o)
 .debug_abbrev  0x0000000000001de0      0x1c7 ../D8M_Camera_Test_bsp//newlib/nios2-elf/lib/libc.a(lib_a-malloc.o)
 .debug_abbrev  0x0000000000001fa7      0x1fb ../D8M_Camera_Test_bsp//newlib/nios2-elf/lib/libc.a(lib_a-mallocr.o)
 .debug_abbrev  0x00000000000021a2       0x8e ../D8M_Camera_Test_bsp//newlib/nios2-elf/lib/libc.a(lib_a-memset.o)
 .debug_abbrev  0x0000000000002230      0x1ed ../D8M_Camera_Test_bsp//newlib/nios2-elf/lib/libc.a(lib_a-printf.o)
 .debug_abbrev  0x000000000000241d      0x1e1 ../D8M_Camera_Test_bsp//newlib/nios2-elf/lib/libc.a(lib_a-putc.o)
 .debug_abbrev  0x00000000000025fe      0x1f5 ../D8M_Camera_Test_bsp//newlib/nios2-elf/lib/libc.a(lib_a-puts.o)
 .debug_abbrev  0x00000000000027f3      0x1e1 ../D8M_Camera_Test_bsp//newlib/nios2-elf/lib/libc.a(lib_a-rget.o)
 .debug_abbrev  0x00000000000029d4      0x1de ../D8M_Camera_Test_bsp//newlib/nios2-elf/lib/libc.a(lib_a-sbrkr.o)
 .debug_abbrev  0x0000000000002bb2       0x7f ../D8M_Camera_Test_bsp//newlib/nios2-elf/lib/libc.a(lib_a-strlen.o)
 .debug_abbrev  0x0000000000002c31      0x2b5 ../D8M_Camera_Test_bsp//newlib/nios2-elf/lib/libc.a(lib_a-vfprintf.o)
 .debug_abbrev  0x0000000000002ee6      0x1f0 ../D8M_Camera_Test_bsp//newlib/nios2-elf/lib/libc.a(lib_a-wbuf.o)
 .debug_abbrev  0x00000000000030d6      0x1c5 ../D8M_Camera_Test_bsp//newlib/nios2-elf/lib/libc.a(lib_a-wsetup.o)
 .debug_abbrev  0x000000000000329b      0x22f ../D8M_Camera_Test_bsp//newlib/nios2-elf/lib/libc.a(lib_a-dtoa.o)
 .debug_abbrev  0x00000000000034ca      0x21d ../D8M_Camera_Test_bsp//newlib/nios2-elf/lib/libc.a(lib_a-fflush.o)
 .debug_abbrev  0x00000000000036e7      0x2ba ../D8M_Camera_Test_bsp//newlib/nios2-elf/lib/libc.a(lib_a-findfp.o)
 .debug_abbrev  0x00000000000039a1      0x1fd ../D8M_Camera_Test_bsp//newlib/nios2-elf/lib/libc.a(lib_a-freer.o)
 .debug_abbrev  0x0000000000003b9e      0x1d5 ../D8M_Camera_Test_bsp//newlib/nios2-elf/lib/libc.a(lib_a-fvwrite.o)
 .debug_abbrev  0x0000000000003d73      0x1ba ../D8M_Camera_Test_bsp//newlib/nios2-elf/lib/libc.a(lib_a-fwalk.o)
 .debug_abbrev  0x0000000000003f2d       0x35 ../D8M_Camera_Test_bsp//newlib/nios2-elf/lib/libc.a(lib_a-int_errno.o)
 .debug_abbrev  0x0000000000003f62      0x255 ../D8M_Camera_Test_bsp//newlib/nios2-elf/lib/libc.a(lib_a-locale.o)
 .debug_abbrev  0x00000000000041b7      0x1b8 ../D8M_Camera_Test_bsp//newlib/nios2-elf/lib/libc.a(lib_a-makebuf.o)
 .debug_abbrev  0x000000000000436f       0xa9 ../D8M_Camera_Test_bsp//newlib/nios2-elf/lib/libc.a(lib_a-memchr.o)
 .debug_abbrev  0x0000000000004418       0xa1 ../D8M_Camera_Test_bsp//newlib/nios2-elf/lib/libc.a(lib_a-memcpy.o)
 .debug_abbrev  0x00000000000044b9       0x9a ../D8M_Camera_Test_bsp//newlib/nios2-elf/lib/libc.a(lib_a-memmove.o)
 .debug_abbrev  0x0000000000004553      0x2a9 ../D8M_Camera_Test_bsp//newlib/nios2-elf/lib/libc.a(lib_a-mprec.o)
 .debug_abbrev  0x00000000000047fc      0x1fe ../D8M_Camera_Test_bsp//newlib/nios2-elf/lib/libc.a(lib_a-reallocr.o)
 .debug_abbrev  0x00000000000049fa      0x1ea ../D8M_Camera_Test_bsp//newlib/nios2-elf/lib/libc.a(lib_a-refill.o)
 .debug_abbrev  0x0000000000004be4       0xc8 ../D8M_Camera_Test_bsp//newlib/nios2-elf/lib/libc.a(lib_a-s_fpclassify.o)
 .debug_abbrev  0x0000000000004cac      0x1f0 ../D8M_Camera_Test_bsp//newlib/nios2-elf/lib/libc.a(lib_a-stdio.o)
 .debug_abbrev  0x0000000000004e9c       0x72 ../D8M_Camera_Test_bsp//newlib/nios2-elf/lib/libc.a(lib_a-strcmp.o)
 .debug_abbrev  0x0000000000004f0e      0x26e ../D8M_Camera_Test_bsp//newlib/nios2-elf/lib/libc.a(lib_a-vfiprintf.o)
 .debug_abbrev  0x000000000000517c      0x1c1 ../D8M_Camera_Test_bsp//newlib/nios2-elf/lib/libc.a(lib_a-writer.o)
 .debug_abbrev  0x000000000000533d      0x1bc ../D8M_Camera_Test_bsp//newlib/nios2-elf/lib/libc.a(closer.o)
 .debug_abbrev  0x00000000000054f9      0x1d2 ../D8M_Camera_Test_bsp//newlib/nios2-elf/lib/libc.a(lib_a-callocr.o)
 .debug_abbrev  0x00000000000056cb      0x1ff ../D8M_Camera_Test_bsp//newlib/nios2-elf/lib/libc.a(lib_a-fclose.o)
 .debug_abbrev  0x00000000000058ca      0x1d4 ../D8M_Camera_Test_bsp//newlib/nios2-elf/lib/libc.a(lib_a-fputwc.o)
 .debug_abbrev  0x0000000000005a9e      0x1cb ../D8M_Camera_Test_bsp//newlib/nios2-elf/lib/libc.a(lib_a-fstatr.o)
 .debug_abbrev  0x0000000000005c69      0x1bc ../D8M_Camera_Test_bsp//newlib/nios2-elf/lib/libc.a(lib_a-isattyr.o)
 .debug_abbrev  0x0000000000005e25      0x1cb ../D8M_Camera_Test_bsp//newlib/nios2-elf/lib/libc.a(lib_a-lseekr.o)
 .debug_abbrev  0x0000000000005ff0      0x1bc ../D8M_Camera_Test_bsp//newlib/nios2-elf/lib/libc.a(lib_a-readr.o)
 .debug_abbrev  0x00000000000061ac      0x1e3 ../D8M_Camera_Test_bsp//newlib/nios2-elf/lib/libc.a(lib_a-wcrtomb.o)
 .debug_abbrev  0x000000000000638f      0x1e7 ../D8M_Camera_Test_bsp//newlib/nios2-elf/lib/libc.a(lib_a-wctomb_r.o)
 .debug_abbrev  0x0000000000006576      0x167 /home/georgech/intelFPGA_lite/16.1/nios2eds/bin/gnu/H-x86_64-pc-linux-gnu/bin/../lib/gcc/nios2-elf/5.3.0/libgcc.a(_udivdi3.o)
 .debug_abbrev  0x00000000000066dd      0x18a /home/georgech/intelFPGA_lite/16.1/nios2eds/bin/gnu/H-x86_64-pc-linux-gnu/bin/../lib/gcc/nios2-elf/5.3.0/libgcc.a(_umoddi3.o)
 .debug_abbrev  0x0000000000006867      0x10e /home/georgech/intelFPGA_lite/16.1/nios2eds/bin/gnu/H-x86_64-pc-linux-gnu/bin/../lib/gcc/nios2-elf/5.3.0/libgcc.a(lib2-divmod.o)
 .debug_abbrev  0x0000000000006975      0x12d /home/georgech/intelFPGA_lite/16.1/nios2eds/bin/gnu/H-x86_64-pc-linux-gnu/bin/../lib/gcc/nios2-elf/5.3.0/libgcc.a(divdf3.o)
 .debug_abbrev  0x0000000000006aa2      0x128 /home/georgech/intelFPGA_lite/16.1/nios2eds/bin/gnu/H-x86_64-pc-linux-gnu/bin/../lib/gcc/nios2-elf/5.3.0/libgcc.a(eqdf2.o)
 .debug_abbrev  0x0000000000006bca      0x137 /home/georgech/intelFPGA_lite/16.1/nios2eds/bin/gnu/H-x86_64-pc-linux-gnu/bin/../lib/gcc/nios2-elf/5.3.0/libgcc.a(gedf2.o)
 .debug_abbrev  0x0000000000006d01      0x137 /home/georgech/intelFPGA_lite/16.1/nios2eds/bin/gnu/H-x86_64-pc-linux-gnu/bin/../lib/gcc/nios2-elf/5.3.0/libgcc.a(ledf2.o)
 .debug_abbrev  0x0000000000006e38      0x133 /home/georgech/intelFPGA_lite/16.1/nios2eds/bin/gnu/H-x86_64-pc-linux-gnu/bin/../lib/gcc/nios2-elf/5.3.0/libgcc.a(subdf3.o)
 .debug_abbrev  0x0000000000006f6b      0x135 /home/georgech/intelFPGA_lite/16.1/nios2eds/bin/gnu/H-x86_64-pc-linux-gnu/bin/../lib/gcc/nios2-elf/5.3.0/libgcc.a(fixdfsi.o)
 .debug_abbrev  0x00000000000070a0      0x124 /home/georgech/intelFPGA_lite/16.1/nios2eds/bin/gnu/H-x86_64-pc-linux-gnu/bin/../lib/gcc/nios2-elf/5.3.0/libgcc.a(floatunsidf.o)
 .debug_abbrev  0x00000000000071c4      0x15c ../D8M_Camera_Test_bsp//libhal_bsp.a(alt_close.o)
 .debug_abbrev  0x0000000000007320       0xd9 ../D8M_Camera_Test_bsp//libhal_bsp.a(alt_dev.o)
 .debug_abbrev  0x00000000000073f9       0x5a ../D8M_Camera_Test_bsp//libhal_bsp.a(alt_errno.o)
 .debug_abbrev  0x0000000000007453      0x142 ../D8M_Camera_Test_bsp//libhal_bsp.a(alt_fcntl.o)
 .debug_abbrev  0x0000000000007595      0x13f ../D8M_Camera_Test_bsp//libhal_bsp.a(alt_fstat.o)
 .debug_abbrev  0x00000000000076d4      0x14d ../D8M_Camera_Test_bsp//libhal_bsp.a(alt_isatty.o)
 .debug_abbrev  0x0000000000007821       0xf6 ../D8M_Camera_Test_bsp//libhal_bsp.a(alt_load.o)
 .debug_abbrev  0x0000000000007917      0x13c ../D8M_Camera_Test_bsp//libhal_bsp.a(alt_lseek.o)
 .debug_abbrev  0x0000000000007a53       0xfd ../D8M_Camera_Test_bsp//libhal_bsp.a(alt_main.o)
 .debug_abbrev  0x0000000000007b50      0x1ac ../D8M_Camera_Test_bsp//libhal_bsp.a(alt_malloc_lock.o)
 .debug_abbrev  0x0000000000007cfc      0x14b ../D8M_Camera_Test_bsp//libhal_bsp.a(alt_read.o)
 .debug_abbrev  0x0000000000007e47       0xde ../D8M_Camera_Test_bsp//libhal_bsp.a(alt_release_fd.o)
 .debug_abbrev  0x0000000000007f25      0x121 ../D8M_Camera_Test_bsp//libhal_bsp.a(alt_sbrk.o)
 .debug_abbrev  0x0000000000008046      0x196 ../D8M_Camera_Test_bsp//libhal_bsp.a(alt_tick.o)
 .debug_abbrev  0x00000000000081dc       0x8d ../D8M_Camera_Test_bsp//libhal_bsp.a(alt_usleep.o)
 .debug_abbrev  0x0000000000008269      0x150 ../D8M_Camera_Test_bsp//libhal_bsp.a(alt_write.o)
 .debug_abbrev  0x00000000000083b9      0x201 ../D8M_Camera_Test_bsp//libhal_bsp.a(alt_sys_init.o)
 .debug_abbrev  0x00000000000085ba      0x160 ../D8M_Camera_Test_bsp//libhal_bsp.a(altera_avalon_jtag_uart_fd.o)
 .debug_abbrev  0x000000000000871a      0x1fe ../D8M_Camera_Test_bsp//libhal_bsp.a(altera_avalon_jtag_uart_init.o)
 .debug_abbrev  0x0000000000008918      0x120 ../D8M_Camera_Test_bsp//libhal_bsp.a(altera_avalon_jtag_uart_ioctl.o)
 .debug_abbrev  0x0000000000008a38      0x1cc ../D8M_Camera_Test_bsp//libhal_bsp.a(altera_avalon_jtag_uart_read.o)
 .debug_abbrev  0x0000000000008c04      0x1b9 ../D8M_Camera_Test_bsp//libhal_bsp.a(altera_avalon_jtag_uart_write.o)
 .debug_abbrev  0x0000000000008dbd      0x191 ../D8M_Camera_Test_bsp//libhal_bsp.a(altera_avalon_timer_sc.o)
 .debug_abbrev  0x0000000000008f4e      0x142 ../D8M_Camera_Test_bsp//libhal_bsp.a(altera_avalon_uart_fd.o)
 .debug_abbrev  0x0000000000009090      0x20a ../D8M_Camera_Test_bsp//libhal_bsp.a(altera_avalon_uart_init.o)
 .debug_abbrev  0x000000000000929a      0x176 ../D8M_Camera_Test_bsp//libhal_bsp.a(altera_avalon_uart_read.o)
 .debug_abbrev  0x0000000000009410      0x197 ../D8M_Camera_Test_bsp//libhal_bsp.a(altera_avalon_uart_write.o)
 .debug_abbrev  0x00000000000095a7      0x187 ../D8M_Camera_Test_bsp//libhal_bsp.a(alt_alarm_start.o)
 .debug_abbrev  0x000000000000972e       0x8d ../D8M_Camera_Test_bsp//libhal_bsp.a(alt_busy_sleep.o)
 .debug_abbrev  0x00000000000097bb       0x5a ../D8M_Camera_Test_bsp//libhal_bsp.a(alt_dcache_flush_all.o)
 .debug_abbrev  0x0000000000009815      0x11e ../D8M_Camera_Test_bsp//libhal_bsp.a(alt_dev_llist_insert.o)
 .debug_abbrev  0x0000000000009933       0x79 ../D8M_Camera_Test_bsp//libhal_bsp.a(alt_do_ctors.o)
 .debug_abbrev  0x00000000000099ac       0x79 ../D8M_Camera_Test_bsp//libhal_bsp.a(alt_do_dtors.o)
 .debug_abbrev  0x0000000000009a25       0x6f ../D8M_Camera_Test_bsp//libhal_bsp.a(alt_icache_flush_all.o)
 .debug_abbrev  0x0000000000009a94      0x1a0 ../D8M_Camera_Test_bsp//libhal_bsp.a(alt_iic.o)
 .debug_abbrev  0x0000000000009c34      0x19c ../D8M_Camera_Test_bsp//libhal_bsp.a(alt_iic_isr_register.o)
 .debug_abbrev  0x0000000000009dd0      0x1c5 ../D8M_Camera_Test_bsp//libhal_bsp.a(alt_io_redirect.o)
 .debug_abbrev  0x0000000000009f95       0x12 ../D8M_Camera_Test_bsp//libhal_bsp.a(alt_irq_entry.o)
 .debug_abbrev  0x0000000000009fa7      0x120 ../D8M_Camera_Test_bsp//libhal_bsp.a(alt_irq_handler.o)
 .debug_abbrev  0x000000000000a0c7       0x40 ../D8M_Camera_Test_bsp//libhal_bsp.a(alt_irq_vars.o)
 .debug_abbrev  0x000000000000a107      0x1be ../D8M_Camera_Test_bsp//libhal_bsp.a(alt_open.o)
 .debug_abbrev  0x000000000000a2c5       0x42 ../D8M_Camera_Test_bsp//libhal_bsp.a(altera_nios2_gen2_irq.o)
 .debug_abbrev  0x000000000000a307       0x12 ../D8M_Camera_Test_bsp//libhal_bsp.a(alt_exception_entry.o)
 .debug_abbrev  0x000000000000a319      0x125 ../D8M_Camera_Test_bsp//libhal_bsp.a(alt_find_dev.o)
 .debug_abbrev  0x000000000000a43e      0x123 ../D8M_Camera_Test_bsp//libhal_bsp.a(alt_find_file.o)
 .debug_abbrev  0x000000000000a561      0x10d ../D8M_Camera_Test_bsp//libhal_bsp.a(alt_get_fd.o)
 .debug_abbrev  0x000000000000a66e       0x9b ../D8M_Camera_Test_bsp//libhal_bsp.a(alt_icache_flush.o)
 .debug_abbrev  0x000000000000a709       0xd8 ../D8M_Camera_Test_bsp//libhal_bsp.a(alt_instruction_exception_entry.o)
 .debug_abbrev  0x000000000000a7e1       0x7b ../D8M_Camera_Test_bsp//newlib/nios2-elf/lib/libc.a(lib_a-atexit.o)
 .debug_abbrev  0x000000000000a85c      0x1ae ../D8M_Camera_Test_bsp//newlib/nios2-elf/lib/libc.a(lib_a-exit.o)
 .debug_abbrev  0x000000000000aa0a       0x7d ../D8M_Camera_Test_bsp//newlib/nios2-elf/lib/libc.a(lib_a-memcmp.o)
 .debug_abbrev  0x000000000000aa87      0x1f4 ../D8M_Camera_Test_bsp//newlib/nios2-elf/lib/libc.a(lib_a-__atexit.o)
 .debug_abbrev  0x000000000000ac7b      0x1ee ../D8M_Camera_Test_bsp//newlib/nios2-elf/lib/libc.a(lib_a-__call_atexit.o)
 .debug_abbrev  0x000000000000ae69       0xa9 ../D8M_Camera_Test_bsp//libhal_bsp.a(alt_exit.o)

.debug_line     0x0000000000000000     0xcd21
 *(.debug_line)
 .debug_line    0x0000000000000000       0x72 ../D8M_Camera_Test_bsp//obj/HAL/src/crt0.o
 .debug_line    0x0000000000000072      0x11b obj/default/1.o
 .debug_line    0x000000000000018d      0x2f8 obj/default/I2C_core.o
 .debug_line    0x0000000000000485      0x195 obj/default/auto_focus.o
 .debug_line    0x000000000000061a      0x338 obj/default/main.o
 .debug_line    0x0000000000000952      0x20b obj/default/mipi_bridge_config.o
 .debug_line    0x0000000000000b5d      0x350 obj/default/mipi_camera_config.o
 .debug_line    0x0000000000000ead      0x226 obj/default/mipi_helpers.o
 .debug_line    0x00000000000010d3      0x146 obj/default/queue.o
 .debug_line    0x0000000000001219      0x37b /home/georgech/intelFPGA_lite/16.1/nios2eds/bin/gnu/H-x86_64-pc-linux-gnu/bin/../lib/gcc/nios2-elf/5.3.0/libgcc.a(adddf3.o)
 .debug_line    0x0000000000001594      0x1e3 /home/georgech/intelFPGA_lite/16.1/nios2eds/bin/gnu/H-x86_64-pc-linux-gnu/bin/../lib/gcc/nios2-elf/5.3.0/libgcc.a(muldf3.o)
 .debug_line    0x0000000000001777       0x9f /home/georgech/intelFPGA_lite/16.1/nios2eds/bin/gnu/H-x86_64-pc-linux-gnu/bin/../lib/gcc/nios2-elf/5.3.0/libgcc.a(floatsidf.o)
 .debug_line    0x0000000000001816       0xc1 /home/georgech/intelFPGA_lite/16.1/nios2eds/bin/gnu/H-x86_64-pc-linux-gnu/bin/../lib/gcc/nios2-elf/5.3.0/libgcc.a(extendsfdf2.o)
 .debug_line    0x00000000000018d7       0xf7 /home/georgech/intelFPGA_lite/16.1/nios2eds/bin/gnu/H-x86_64-pc-linux-gnu/bin/../lib/gcc/nios2-elf/5.3.0/libgcc.a(truncdfsf2.o)
 .debug_line    0x00000000000019ce       0xb7 /home/georgech/intelFPGA_lite/16.1/nios2eds/bin/gnu/H-x86_64-pc-linux-gnu/bin/../lib/gcc/nios2-elf/5.3.0/libgcc.a(_clzsi2.o)
 .debug_line    0x0000000000001a85       0x53 /home/georgech/intelFPGA_lite/16.1/nios2eds/bin/gnu/H-x86_64-pc-linux-gnu/bin/../lib/gcc/nios2-elf/5.3.0/libgcc.a(_clz.o)
 .debug_line    0x0000000000001ad8      0x1d4 ../D8M_Camera_Test_bsp//newlib/nios2-elf/lib/libc.a(lib_a-fprintf.o)
 .debug_line    0x0000000000001cac      0x1e1 ../D8M_Camera_Test_bsp//newlib/nios2-elf/lib/libc.a(lib_a-fputc.o)
 .debug_line    0x0000000000001e8d      0x1f9 ../D8M_Camera_Test_bsp//newlib/nios2-elf/lib/libc.a(lib_a-fwrite.o)
 .debug_line    0x0000000000002086      0x214 ../D8M_Camera_Test_bsp//newlib/nios2-elf/lib/libc.a(lib_a-getc.o)
 .debug_line    0x000000000000229a      0x147 ../D8M_Camera_Test_bsp//newlib/nios2-elf/lib/libc.a(lib_a-impure.o)
 .debug_line    0x00000000000023e1      0x1c7 ../D8M_Camera_Test_bsp//newlib/nios2-elf/lib/libc.a(lib_a-malloc.o)
 .debug_line    0x00000000000025a8      0x37f ../D8M_Camera_Test_bsp//newlib/nios2-elf/lib/libc.a(lib_a-mallocr.o)
 .debug_line    0x0000000000002927      0x17b ../D8M_Camera_Test_bsp//newlib/nios2-elf/lib/libc.a(lib_a-memset.o)
 .debug_line    0x0000000000002aa2      0x1d6 ../D8M_Camera_Test_bsp//newlib/nios2-elf/lib/libc.a(lib_a-printf.o)
 .debug_line    0x0000000000002c78      0x244 ../D8M_Camera_Test_bsp//newlib/nios2-elf/lib/libc.a(lib_a-putc.o)
 .debug_line    0x0000000000002ebc      0x20d ../D8M_Camera_Test_bsp//newlib/nios2-elf/lib/libc.a(lib_a-puts.o)
 .debug_line    0x00000000000030c9      0x1d1 ../D8M_Camera_Test_bsp//newlib/nios2-elf/lib/libc.a(lib_a-rget.o)
 .debug_line    0x000000000000329a      0x1ba ../D8M_Camera_Test_bsp//newlib/nios2-elf/lib/libc.a(lib_a-sbrkr.o)
 .debug_line    0x0000000000003454      0x154 ../D8M_Camera_Test_bsp//newlib/nios2-elf/lib/libc.a(lib_a-strlen.o)
 .debug_line    0x00000000000035a8      0x9d0 ../D8M_Camera_Test_bsp//newlib/nios2-elf/lib/libc.a(lib_a-vfprintf.o)
 .debug_line    0x0000000000003f78      0x203 ../D8M_Camera_Test_bsp//newlib/nios2-elf/lib/libc.a(lib_a-wbuf.o)
 .debug_line    0x000000000000417b      0x1fe ../D8M_Camera_Test_bsp//newlib/nios2-elf/lib/libc.a(lib_a-wsetup.o)
 .debug_line    0x0000000000004379      0x644 ../D8M_Camera_Test_bsp//newlib/nios2-elf/lib/libc.a(lib_a-dtoa.o)
 .debug_line    0x00000000000049bd      0x284 ../D8M_Camera_Test_bsp//newlib/nios2-elf/lib/libc.a(lib_a-fflush.o)
 .debug_line    0x0000000000004c41      0x318 ../D8M_Camera_Test_bsp//newlib/nios2-elf/lib/libc.a(lib_a-findfp.o)
 .debug_line    0x0000000000004f59      0x250 ../D8M_Camera_Test_bsp//newlib/nios2-elf/lib/libc.a(lib_a-freer.o)
 .debug_line    0x00000000000051a9      0x2aa ../D8M_Camera_Test_bsp//newlib/nios2-elf/lib/libc.a(lib_a-fvwrite.o)
 .debug_line    0x0000000000005453      0x21f ../D8M_Camera_Test_bsp//newlib/nios2-elf/lib/libc.a(lib_a-fwalk.o)
 .debug_line    0x0000000000005672       0x75 ../D8M_Camera_Test_bsp//newlib/nios2-elf/lib/libc.a(lib_a-int_errno.o)
 .debug_line    0x00000000000056e7      0x252 ../D8M_Camera_Test_bsp//newlib/nios2-elf/lib/libc.a(lib_a-locale.o)
 .debug_line    0x0000000000005939      0x207 ../D8M_Camera_Test_bsp//newlib/nios2-elf/lib/libc.a(lib_a-makebuf.o)
 .debug_line    0x0000000000005b40      0x17a ../D8M_Camera_Test_bsp//newlib/nios2-elf/lib/libc.a(lib_a-memchr.o)
 .debug_line    0x0000000000005cba      0x16a ../D8M_Camera_Test_bsp//newlib/nios2-elf/lib/libc.a(lib_a-memcpy.o)
 .debug_line    0x0000000000005e24      0x17e ../D8M_Camera_Test_bsp//newlib/nios2-elf/lib/libc.a(lib_a-memmove.o)
 .debug_line    0x0000000000005fa2      0x66f ../D8M_Camera_Test_bsp//newlib/nios2-elf/lib/libc.a(lib_a-mprec.o)
 .debug_line    0x0000000000006611      0x2cc ../D8M_Camera_Test_bsp//newlib/nios2-elf/lib/libc.a(lib_a-reallocr.o)
 .debug_line    0x00000000000068dd      0x215 ../D8M_Camera_Test_bsp//newlib/nios2-elf/lib/libc.a(lib_a-refill.o)
 .debug_line    0x0000000000006af2      0x18f ../D8M_Camera_Test_bsp//newlib/nios2-elf/lib/libc.a(lib_a-s_fpclassify.o)
 .debug_line    0x0000000000006c81      0x227 ../D8M_Camera_Test_bsp//newlib/nios2-elf/lib/libc.a(lib_a-stdio.o)
 .debug_line    0x0000000000006ea8      0x100 ../D8M_Camera_Test_bsp//newlib/nios2-elf/lib/libc.a(lib_a-strcmp.o)
 .debug_line    0x0000000000006fa8      0x693 ../D8M_Camera_Test_bsp//newlib/nios2-elf/lib/libc.a(lib_a-vfiprintf.o)
 .debug_line    0x000000000000763b      0x1bb ../D8M_Camera_Test_bsp//newlib/nios2-elf/lib/libc.a(lib_a-writer.o)
 .debug_line    0x00000000000077f6      0x1bb ../D8M_Camera_Test_bsp//newlib/nios2-elf/lib/libc.a(closer.o)
 .debug_line    0x00000000000079b1      0x193 ../D8M_Camera_Test_bsp//newlib/nios2-elf/lib/libc.a(lib_a-callocr.o)
 .debug_line    0x0000000000007b44      0x1fb ../D8M_Camera_Test_bsp//newlib/nios2-elf/lib/libc.a(lib_a-fclose.o)
 .debug_line    0x0000000000007d3f      0x249 ../D8M_Camera_Test_bsp//newlib/nios2-elf/lib/libc.a(lib_a-fputwc.o)
 .debug_line    0x0000000000007f88      0x1d0 ../D8M_Camera_Test_bsp//newlib/nios2-elf/lib/libc.a(lib_a-fstatr.o)
 .debug_line    0x0000000000008158      0x1bc ../D8M_Camera_Test_bsp//newlib/nios2-elf/lib/libc.a(lib_a-isattyr.o)
 .debug_line    0x0000000000008314      0x1bb ../D8M_Camera_Test_bsp//newlib/nios2-elf/lib/libc.a(lib_a-lseekr.o)
 .debug_line    0x00000000000084cf      0x1ba ../D8M_Camera_Test_bsp//newlib/nios2-elf/lib/libc.a(lib_a-readr.o)
 .debug_line    0x0000000000008689      0x1f4 ../D8M_Camera_Test_bsp//newlib/nios2-elf/lib/libc.a(lib_a-wcrtomb.o)
 .debug_line    0x000000000000887d      0x1da ../D8M_Camera_Test_bsp//newlib/nios2-elf/lib/libc.a(lib_a-wctomb_r.o)
 .debug_line    0x0000000000008a57      0x12a /home/georgech/intelFPGA_lite/16.1/nios2eds/bin/gnu/H-x86_64-pc-linux-gnu/bin/../lib/gcc/nios2-elf/5.3.0/libgcc.a(_udivdi3.o)
 .debug_line    0x0000000000008b81      0x13a /home/georgech/intelFPGA_lite/16.1/nios2eds/bin/gnu/H-x86_64-pc-linux-gnu/bin/../lib/gcc/nios2-elf/5.3.0/libgcc.a(_umoddi3.o)
 .debug_line    0x0000000000008cbb      0x102 /home/georgech/intelFPGA_lite/16.1/nios2eds/bin/gnu/H-x86_64-pc-linux-gnu/bin/../lib/gcc/nios2-elf/5.3.0/libgcc.a(lib2-divmod.o)
 .debug_line    0x0000000000008dbd      0x2ad /home/georgech/intelFPGA_lite/16.1/nios2eds/bin/gnu/H-x86_64-pc-linux-gnu/bin/../lib/gcc/nios2-elf/5.3.0/libgcc.a(divdf3.o)
 .debug_line    0x000000000000906a       0xaa /home/georgech/intelFPGA_lite/16.1/nios2eds/bin/gnu/H-x86_64-pc-linux-gnu/bin/../lib/gcc/nios2-elf/5.3.0/libgcc.a(eqdf2.o)
 .debug_line    0x0000000000009114       0xcb /home/georgech/intelFPGA_lite/16.1/nios2eds/bin/gnu/H-x86_64-pc-linux-gnu/bin/../lib/gcc/nios2-elf/5.3.0/libgcc.a(gedf2.o)
 .debug_line    0x00000000000091df       0xe3 /home/georgech/intelFPGA_lite/16.1/nios2eds/bin/gnu/H-x86_64-pc-linux-gnu/bin/../lib/gcc/nios2-elf/5.3.0/libgcc.a(ledf2.o)
 .debug_line    0x00000000000092c2      0x3a8 /home/georgech/intelFPGA_lite/16.1/nios2eds/bin/gnu/H-x86_64-pc-linux-gnu/bin/../lib/gcc/nios2-elf/5.3.0/libgcc.a(subdf3.o)
 .debug_line    0x000000000000966a       0x98 /home/georgech/intelFPGA_lite/16.1/nios2eds/bin/gnu/H-x86_64-pc-linux-gnu/bin/../lib/gcc/nios2-elf/5.3.0/libgcc.a(fixdfsi.o)
 .debug_line    0x0000000000009702       0x92 /home/georgech/intelFPGA_lite/16.1/nios2eds/bin/gnu/H-x86_64-pc-linux-gnu/bin/../lib/gcc/nios2-elf/5.3.0/libgcc.a(floatunsidf.o)
 .debug_line    0x0000000000009794      0x109 ../D8M_Camera_Test_bsp//libhal_bsp.a(alt_close.o)
 .debug_line    0x000000000000989d       0xc6 ../D8M_Camera_Test_bsp//libhal_bsp.a(alt_dev.o)
 .debug_line    0x0000000000009963       0x51 ../D8M_Camera_Test_bsp//libhal_bsp.a(alt_errno.o)
 .debug_line    0x00000000000099b4      0x1a5 ../D8M_Camera_Test_bsp//libhal_bsp.a(alt_fcntl.o)
 .debug_line    0x0000000000009b59      0x128 ../D8M_Camera_Test_bsp//libhal_bsp.a(alt_fstat.o)
 .debug_line    0x0000000000009c81      0x121 ../D8M_Camera_Test_bsp//libhal_bsp.a(alt_isatty.o)
 .debug_line    0x0000000000009da2       0xa4 ../D8M_Camera_Test_bsp//libhal_bsp.a(alt_load.o)
 .debug_line    0x0000000000009e46      0x111 ../D8M_Camera_Test_bsp//libhal_bsp.a(alt_lseek.o)
 .debug_line    0x0000000000009f57      0x119 ../D8M_Camera_Test_bsp//libhal_bsp.a(alt_main.o)
 .debug_line    0x000000000000a070      0x103 ../D8M_Camera_Test_bsp//libhal_bsp.a(alt_malloc_lock.o)
 .debug_line    0x000000000000a173      0x1af ../D8M_Camera_Test_bsp//libhal_bsp.a(alt_read.o)
 .debug_line    0x000000000000a322       0xac ../D8M_Camera_Test_bsp//libhal_bsp.a(alt_release_fd.o)
 .debug_line    0x000000000000a3ce       0xc1 ../D8M_Camera_Test_bsp//libhal_bsp.a(alt_sbrk.o)
 .debug_line    0x000000000000a48f      0x11e ../D8M_Camera_Test_bsp//libhal_bsp.a(alt_tick.o)
 .debug_line    0x000000000000a5ad       0x93 ../D8M_Camera_Test_bsp//libhal_bsp.a(alt_usleep.o)
 .debug_line    0x000000000000a640      0x1ad ../D8M_Camera_Test_bsp//libhal_bsp.a(alt_write.o)
 .debug_line    0x000000000000a7ed      0x1c0 ../D8M_Camera_Test_bsp//libhal_bsp.a(alt_sys_init.o)
 .debug_line    0x000000000000a9ad      0x122 ../D8M_Camera_Test_bsp//libhal_bsp.a(altera_avalon_jtag_uart_fd.o)
 .debug_line    0x000000000000aacf      0x1ab ../D8M_Camera_Test_bsp//libhal_bsp.a(altera_avalon_jtag_uart_init.o)
 .debug_line    0x000000000000ac7a      0x114 ../D8M_Camera_Test_bsp//libhal_bsp.a(altera_avalon_jtag_uart_ioctl.o)
 .debug_line    0x000000000000ad8e      0x180 ../D8M_Camera_Test_bsp//libhal_bsp.a(altera_avalon_jtag_uart_read.o)
 .debug_line    0x000000000000af0e      0x1a9 ../D8M_Camera_Test_bsp//libhal_bsp.a(altera_avalon_jtag_uart_write.o)
 .debug_line    0x000000000000b0b7       0xfe ../D8M_Camera_Test_bsp//libhal_bsp.a(altera_avalon_timer_sc.o)
 .debug_line    0x000000000000b1b5       0xe4 ../D8M_Camera_Test_bsp//libhal_bsp.a(altera_avalon_uart_fd.o)
 .debug_line    0x000000000000b299      0x15a ../D8M_Camera_Test_bsp//libhal_bsp.a(altera_avalon_uart_init.o)
 .debug_line    0x000000000000b3f3      0x1ab ../D8M_Camera_Test_bsp//libhal_bsp.a(altera_avalon_uart_read.o)
 .debug_line    0x000000000000b59e      0x169 ../D8M_Camera_Test_bsp//libhal_bsp.a(altera_avalon_uart_write.o)
 .debug_line    0x000000000000b707       0xeb ../D8M_Camera_Test_bsp//libhal_bsp.a(alt_alarm_start.o)
 .debug_line    0x000000000000b7f2       0xa9 ../D8M_Camera_Test_bsp//libhal_bsp.a(alt_busy_sleep.o)
 .debug_line    0x000000000000b89b       0x5a ../D8M_Camera_Test_bsp//libhal_bsp.a(alt_dcache_flush_all.o)
 .debug_line    0x000000000000b8f5       0xe1 ../D8M_Camera_Test_bsp//libhal_bsp.a(alt_dev_llist_insert.o)
 .debug_line    0x000000000000b9d6       0x5f ../D8M_Camera_Test_bsp//libhal_bsp.a(alt_do_ctors.o)
 .debug_line    0x000000000000ba35       0x5f ../D8M_Camera_Test_bsp//libhal_bsp.a(alt_do_dtors.o)
 .debug_line    0x000000000000ba94       0x6e ../D8M_Camera_Test_bsp//libhal_bsp.a(alt_icache_flush_all.o)
 .debug_line    0x000000000000bb02       0xf1 ../D8M_Camera_Test_bsp//libhal_bsp.a(alt_iic.o)
 .debug_line    0x000000000000bbf3       0xd8 ../D8M_Camera_Test_bsp//libhal_bsp.a(alt_iic_isr_register.o)
 .debug_line    0x000000000000bccb      0x134 ../D8M_Camera_Test_bsp//libhal_bsp.a(alt_io_redirect.o)
 .debug_line    0x000000000000bdff       0x6b ../D8M_Camera_Test_bsp//libhal_bsp.a(alt_irq_entry.o)
 .debug_line    0x000000000000be6a       0xab ../D8M_Camera_Test_bsp//libhal_bsp.a(alt_irq_handler.o)
 .debug_line    0x000000000000bf15       0x50 ../D8M_Camera_Test_bsp//libhal_bsp.a(alt_irq_vars.o)
 .debug_line    0x000000000000bf65      0x120 ../D8M_Camera_Test_bsp//libhal_bsp.a(alt_open.o)
 .debug_line    0x000000000000c085       0x50 ../D8M_Camera_Test_bsp//libhal_bsp.a(altera_nios2_gen2_irq.o)
 .debug_line    0x000000000000c0d5       0xb3 ../D8M_Camera_Test_bsp//libhal_bsp.a(alt_exception_entry.o)
 .debug_line    0x000000000000c188       0xdf ../D8M_Camera_Test_bsp//libhal_bsp.a(alt_find_dev.o)
 .debug_line    0x000000000000c267       0xf7 ../D8M_Camera_Test_bsp//libhal_bsp.a(alt_find_file.o)
 .debug_line    0x000000000000c35e       0xcd ../D8M_Camera_Test_bsp//libhal_bsp.a(alt_get_fd.o)
 .debug_line    0x000000000000c42b       0x77 ../D8M_Camera_Test_bsp//libhal_bsp.a(alt_icache_flush.o)
 .debug_line    0x000000000000c4a2       0xc7 ../D8M_Camera_Test_bsp//libhal_bsp.a(alt_instruction_exception_entry.o)
 .debug_line    0x000000000000c569       0xe9 ../D8M_Camera_Test_bsp//newlib/nios2-elf/lib/libc.a(lib_a-atexit.o)
 .debug_line    0x000000000000c652      0x1b4 ../D8M_Camera_Test_bsp//newlib/nios2-elf/lib/libc.a(lib_a-exit.o)
 .debug_line    0x000000000000c806      0x164 ../D8M_Camera_Test_bsp//newlib/nios2-elf/lib/libc.a(lib_a-memcmp.o)
 .debug_line    0x000000000000c96a      0x18a ../D8M_Camera_Test_bsp//newlib/nios2-elf/lib/libc.a(lib_a-__atexit.o)
 .debug_line    0x000000000000caf4      0x1c9 ../D8M_Camera_Test_bsp//newlib/nios2-elf/lib/libc.a(lib_a-__call_atexit.o)
 .debug_line    0x000000000000ccbd       0x64 ../D8M_Camera_Test_bsp//libhal_bsp.a(alt_exit.o)

.debug_frame    0x0000000000000000     0x2c00
 *(.debug_frame)
 .debug_frame   0x0000000000000000       0x2c obj/default/1.o
 .debug_frame   0x000000000000002c      0x210 obj/default/I2C_core.o
 .debug_frame   0x000000000000023c       0x88 obj/default/auto_focus.o
 .debug_frame   0x00000000000002c4       0x6c obj/default/main.o
 .debug_frame   0x0000000000000330       0xac obj/default/mipi_bridge_config.o
 .debug_frame   0x00000000000003dc      0x224 obj/default/mipi_camera_config.o
 .debug_frame   0x0000000000000600       0xb8 obj/default/mipi_helpers.o
 .debug_frame   0x00000000000006b8      0x11c obj/default/queue.o
 .debug_frame   0x00000000000007d4       0x40 /home/georgech/intelFPGA_lite/16.1/nios2eds/bin/gnu/H-x86_64-pc-linux-gnu/bin/../lib/gcc/nios2-elf/5.3.0/libgcc.a(adddf3.o)
 .debug_frame   0x0000000000000814       0x58 /home/georgech/intelFPGA_lite/16.1/nios2eds/bin/gnu/H-x86_64-pc-linux-gnu/bin/../lib/gcc/nios2-elf/5.3.0/libgcc.a(muldf3.o)
 .debug_frame   0x000000000000086c       0x38 /home/georgech/intelFPGA_lite/16.1/nios2eds/bin/gnu/H-x86_64-pc-linux-gnu/bin/../lib/gcc/nios2-elf/5.3.0/libgcc.a(floatsidf.o)
 .debug_frame   0x00000000000008a4       0x38 /home/georgech/intelFPGA_lite/16.1/nios2eds/bin/gnu/H-x86_64-pc-linux-gnu/bin/../lib/gcc/nios2-elf/5.3.0/libgcc.a(extendsfdf2.o)
 .debug_frame   0x00000000000008dc       0x20 /home/georgech/intelFPGA_lite/16.1/nios2eds/bin/gnu/H-x86_64-pc-linux-gnu/bin/../lib/gcc/nios2-elf/5.3.0/libgcc.a(truncdfsf2.o)
 .debug_frame   0x00000000000008fc       0x20 /home/georgech/intelFPGA_lite/16.1/nios2eds/bin/gnu/H-x86_64-pc-linux-gnu/bin/../lib/gcc/nios2-elf/5.3.0/libgcc.a(_clzsi2.o)
 .debug_frame   0x000000000000091c       0x60 ../D8M_Camera_Test_bsp//newlib/nios2-elf/lib/libc.a(lib_a-fprintf.o)
 .debug_frame   0x000000000000097c       0x60 ../D8M_Camera_Test_bsp//newlib/nios2-elf/lib/libc.a(lib_a-fputc.o)
 .debug_frame   0x00000000000009dc       0x60 ../D8M_Camera_Test_bsp//newlib/nios2-elf/lib/libc.a(lib_a-fwrite.o)
 .debug_frame   0x0000000000000a3c       0x68 ../D8M_Camera_Test_bsp//newlib/nios2-elf/lib/libc.a(lib_a-getc.o)
 .debug_frame   0x0000000000000aa4       0x60 ../D8M_Camera_Test_bsp//newlib/nios2-elf/lib/libc.a(lib_a-malloc.o)
 .debug_frame   0x0000000000000b04       0x60 ../D8M_Camera_Test_bsp//newlib/nios2-elf/lib/libc.a(lib_a-mallocr.o)
 .debug_frame   0x0000000000000b64       0x34 ../D8M_Camera_Test_bsp//newlib/nios2-elf/lib/libc.a(lib_a-memset.o)
 .debug_frame   0x0000000000000b98       0x60 ../D8M_Camera_Test_bsp//newlib/nios2-elf/lib/libc.a(lib_a-printf.o)
 .debug_frame   0x0000000000000bf8       0x68 ../D8M_Camera_Test_bsp//newlib/nios2-elf/lib/libc.a(lib_a-putc.o)
 .debug_frame   0x0000000000000c60       0x60 ../D8M_Camera_Test_bsp//newlib/nios2-elf/lib/libc.a(lib_a-puts.o)
 .debug_frame   0x0000000000000cc0       0x64 ../D8M_Camera_Test_bsp//newlib/nios2-elf/lib/libc.a(lib_a-rget.o)
 .debug_frame   0x0000000000000d24       0x38 ../D8M_Camera_Test_bsp//newlib/nios2-elf/lib/libc.a(lib_a-sbrkr.o)
 .debug_frame   0x0000000000000d5c       0x34 ../D8M_Camera_Test_bsp//newlib/nios2-elf/lib/libc.a(lib_a-strlen.o)
 .debug_frame   0x0000000000000d90      0x10c ../D8M_Camera_Test_bsp//newlib/nios2-elf/lib/libc.a(lib_a-vfprintf.o)
 .debug_frame   0x0000000000000e9c       0x70 ../D8M_Camera_Test_bsp//newlib/nios2-elf/lib/libc.a(lib_a-wbuf.o)
 .debug_frame   0x0000000000000f0c       0x40 ../D8M_Camera_Test_bsp//newlib/nios2-elf/lib/libc.a(lib_a-wsetup.o)
 .debug_frame   0x0000000000000f4c       0x74 ../D8M_Camera_Test_bsp//newlib/nios2-elf/lib/libc.a(lib_a-dtoa.o)
 .debug_frame   0x0000000000000fc0       0xa0 ../D8M_Camera_Test_bsp//newlib/nios2-elf/lib/libc.a(lib_a-fflush.o)
 .debug_frame   0x0000000000001060      0x22c ../D8M_Camera_Test_bsp//newlib/nios2-elf/lib/libc.a(lib_a-findfp.o)
 .debug_frame   0x000000000000128c       0x60 ../D8M_Camera_Test_bsp//newlib/nios2-elf/lib/libc.a(lib_a-freer.o)
 .debug_frame   0x00000000000012ec       0x58 ../D8M_Camera_Test_bsp//newlib/nios2-elf/lib/libc.a(lib_a-fvwrite.o)
 .debug_frame   0x0000000000001344       0x88 ../D8M_Camera_Test_bsp//newlib/nios2-elf/lib/libc.a(lib_a-fwalk.o)
 .debug_frame   0x00000000000013cc      0x13c ../D8M_Camera_Test_bsp//newlib/nios2-elf/lib/libc.a(lib_a-locale.o)
 .debug_frame   0x0000000000001508       0x4c ../D8M_Camera_Test_bsp//newlib/nios2-elf/lib/libc.a(lib_a-makebuf.o)
 .debug_frame   0x0000000000001554       0x34 ../D8M_Camera_Test_bsp//newlib/nios2-elf/lib/libc.a(lib_a-memchr.o)
 .debug_frame   0x0000000000001588       0x34 ../D8M_Camera_Test_bsp//newlib/nios2-elf/lib/libc.a(lib_a-memcpy.o)
 .debug_frame   0x00000000000015bc       0x34 ../D8M_Camera_Test_bsp//newlib/nios2-elf/lib/libc.a(lib_a-memmove.o)
 .debug_frame   0x00000000000015f0      0x304 ../D8M_Camera_Test_bsp//newlib/nios2-elf/lib/libc.a(lib_a-mprec.o)
 .debug_frame   0x00000000000018f4       0x38 ../D8M_Camera_Test_bsp//newlib/nios2-elf/lib/libc.a(lib_a-reallocr.o)
 .debug_frame   0x000000000000192c       0x68 ../D8M_Camera_Test_bsp//newlib/nios2-elf/lib/libc.a(lib_a-refill.o)
 .debug_frame   0x0000000000001994       0x34 ../D8M_Camera_Test_bsp//newlib/nios2-elf/lib/libc.a(lib_a-s_fpclassify.o)
 .debug_frame   0x00000000000019c8       0xe8 ../D8M_Camera_Test_bsp//newlib/nios2-elf/lib/libc.a(lib_a-stdio.o)
 .debug_frame   0x0000000000001ab0       0x34 ../D8M_Camera_Test_bsp//newlib/nios2-elf/lib/libc.a(lib_a-strcmp.o)
 .debug_frame   0x0000000000001ae4       0xe8 ../D8M_Camera_Test_bsp//newlib/nios2-elf/lib/libc.a(lib_a-vfiprintf.o)
 .debug_frame   0x0000000000001bcc       0x38 ../D8M_Camera_Test_bsp//newlib/nios2-elf/lib/libc.a(lib_a-writer.o)
 .debug_frame   0x0000000000001c04       0x38 ../D8M_Camera_Test_bsp//newlib/nios2-elf/lib/libc.a(closer.o)
 .debug_frame   0x0000000000001c3c       0x38 ../D8M_Camera_Test_bsp//newlib/nios2-elf/lib/libc.a(lib_a-callocr.o)
 .debug_frame   0x0000000000001c74       0x68 ../D8M_Camera_Test_bsp//newlib/nios2-elf/lib/libc.a(lib_a-fclose.o)
 .debug_frame   0x0000000000001cdc       0x88 ../D8M_Camera_Test_bsp//newlib/nios2-elf/lib/libc.a(lib_a-fputwc.o)
 .debug_frame   0x0000000000001d64       0x38 ../D8M_Camera_Test_bsp//newlib/nios2-elf/lib/libc.a(lib_a-fstatr.o)
 .debug_frame   0x0000000000001d9c       0x38 ../D8M_Camera_Test_bsp//newlib/nios2-elf/lib/libc.a(lib_a-isattyr.o)
 .debug_frame   0x0000000000001dd4       0x38 ../D8M_Camera_Test_bsp//newlib/nios2-elf/lib/libc.a(lib_a-lseekr.o)
 .debug_frame   0x0000000000001e0c       0x38 ../D8M_Camera_Test_bsp//newlib/nios2-elf/lib/libc.a(lib_a-readr.o)
 .debug_frame   0x0000000000001e44       0x68 ../D8M_Camera_Test_bsp//newlib/nios2-elf/lib/libc.a(lib_a-wcrtomb.o)
 .debug_frame   0x0000000000001eac       0x60 ../D8M_Camera_Test_bsp//newlib/nios2-elf/lib/libc.a(lib_a-wctomb_r.o)
 .debug_frame   0x0000000000001f0c       0x54 /home/georgech/intelFPGA_lite/16.1/nios2eds/bin/gnu/H-x86_64-pc-linux-gnu/bin/../lib/gcc/nios2-elf/5.3.0/libgcc.a(_udivdi3.o)
 .debug_frame   0x0000000000001f60       0x54 /home/georgech/intelFPGA_lite/16.1/nios2eds/bin/gnu/H-x86_64-pc-linux-gnu/bin/../lib/gcc/nios2-elf/5.3.0/libgcc.a(_umoddi3.o)
 .debug_frame   0x0000000000001fb4       0x50 /home/georgech/intelFPGA_lite/16.1/nios2eds/bin/gnu/H-x86_64-pc-linux-gnu/bin/../lib/gcc/nios2-elf/5.3.0/libgcc.a(lib2-divmod.o)
 .debug_frame   0x0000000000002004       0x58 /home/georgech/intelFPGA_lite/16.1/nios2eds/bin/gnu/H-x86_64-pc-linux-gnu/bin/../lib/gcc/nios2-elf/5.3.0/libgcc.a(divdf3.o)
 .debug_frame   0x000000000000205c       0x20 /home/georgech/intelFPGA_lite/16.1/nios2eds/bin/gnu/H-x86_64-pc-linux-gnu/bin/../lib/gcc/nios2-elf/5.3.0/libgcc.a(eqdf2.o)
 .debug_frame   0x000000000000207c       0x20 /home/georgech/intelFPGA_lite/16.1/nios2eds/bin/gnu/H-x86_64-pc-linux-gnu/bin/../lib/gcc/nios2-elf/5.3.0/libgcc.a(gedf2.o)
 .debug_frame   0x000000000000209c       0x20 /home/georgech/intelFPGA_lite/16.1/nios2eds/bin/gnu/H-x86_64-pc-linux-gnu/bin/../lib/gcc/nios2-elf/5.3.0/libgcc.a(ledf2.o)
 .debug_frame   0x00000000000020bc       0x44 /home/georgech/intelFPGA_lite/16.1/nios2eds/bin/gnu/H-x86_64-pc-linux-gnu/bin/../lib/gcc/nios2-elf/5.3.0/libgcc.a(subdf3.o)
 .debug_frame   0x0000000000002100       0x20 /home/georgech/intelFPGA_lite/16.1/nios2eds/bin/gnu/H-x86_64-pc-linux-gnu/bin/../lib/gcc/nios2-elf/5.3.0/libgcc.a(fixdfsi.o)
 .debug_frame   0x0000000000002120       0x34 /home/georgech/intelFPGA_lite/16.1/nios2eds/bin/gnu/H-x86_64-pc-linux-gnu/bin/../lib/gcc/nios2-elf/5.3.0/libgcc.a(floatunsidf.o)
 .debug_frame   0x0000000000002154       0x38 ../D8M_Camera_Test_bsp//libhal_bsp.a(alt_close.o)
 .debug_frame   0x000000000000218c       0x20 ../D8M_Camera_Test_bsp//libhal_bsp.a(alt_dev.o)
 .debug_frame   0x00000000000021ac       0x40 ../D8M_Camera_Test_bsp//libhal_bsp.a(alt_fcntl.o)
 .debug_frame   0x00000000000021ec       0x2c ../D8M_Camera_Test_bsp//libhal_bsp.a(alt_fstat.o)
 .debug_frame   0x0000000000002218       0x40 ../D8M_Camera_Test_bsp//libhal_bsp.a(alt_isatty.o)
 .debug_frame   0x0000000000002258       0x2c ../D8M_Camera_Test_bsp//libhal_bsp.a(alt_load.o)
 .debug_frame   0x0000000000002284       0x34 ../D8M_Camera_Test_bsp//libhal_bsp.a(alt_lseek.o)
 .debug_frame   0x00000000000022b8       0x28 ../D8M_Camera_Test_bsp//libhal_bsp.a(alt_main.o)
 .debug_frame   0x00000000000022e0       0x30 ../D8M_Camera_Test_bsp//libhal_bsp.a(alt_malloc_lock.o)
 .debug_frame   0x0000000000002310       0x34 ../D8M_Camera_Test_bsp//libhal_bsp.a(alt_read.o)
 .debug_frame   0x0000000000002344       0x20 ../D8M_Camera_Test_bsp//libhal_bsp.a(alt_release_fd.o)
 .debug_frame   0x0000000000002364       0x20 ../D8M_Camera_Test_bsp//libhal_bsp.a(alt_sbrk.o)
 .debug_frame   0x0000000000002384       0x54 ../D8M_Camera_Test_bsp//libhal_bsp.a(alt_tick.o)
 .debug_frame   0x00000000000023d8       0x20 ../D8M_Camera_Test_bsp//libhal_bsp.a(alt_usleep.o)
 .debug_frame   0x00000000000023f8       0x34 ../D8M_Camera_Test_bsp//libhal_bsp.a(alt_write.o)
 .debug_frame   0x000000000000242c       0x58 ../D8M_Camera_Test_bsp//libhal_bsp.a(alt_sys_init.o)
 .debug_frame   0x0000000000002484       0x50 ../D8M_Camera_Test_bsp//libhal_bsp.a(altera_avalon_jtag_uart_fd.o)
 .debug_frame   0x00000000000024d4       0x60 ../D8M_Camera_Test_bsp//libhal_bsp.a(altera_avalon_jtag_uart_init.o)
 .debug_frame   0x0000000000002534       0x20 ../D8M_Camera_Test_bsp//libhal_bsp.a(altera_avalon_jtag_uart_ioctl.o)
 .debug_frame   0x0000000000002554       0x64 ../D8M_Camera_Test_bsp//libhal_bsp.a(altera_avalon_jtag_uart_read.o)
 .debug_frame   0x00000000000025b8       0x54 ../D8M_Camera_Test_bsp//libhal_bsp.a(altera_avalon_jtag_uart_write.o)
 .debug_frame   0x000000000000260c       0x4c ../D8M_Camera_Test_bsp//libhal_bsp.a(altera_avalon_timer_sc.o)
 .debug_frame   0x0000000000002658       0x40 ../D8M_Camera_Test_bsp//libhal_bsp.a(altera_avalon_uart_fd.o)
 .debug_frame   0x0000000000002698       0x4c ../D8M_Camera_Test_bsp//libhal_bsp.a(altera_avalon_uart_init.o)
 .debug_frame   0x00000000000026e4       0x30 ../D8M_Camera_Test_bsp//libhal_bsp.a(altera_avalon_uart_read.o)
 .debug_frame   0x0000000000002714       0x34 ../D8M_Camera_Test_bsp//libhal_bsp.a(altera_avalon_uart_write.o)
 .debug_frame   0x0000000000002748       0x20 ../D8M_Camera_Test_bsp//libhal_bsp.a(alt_alarm_start.o)
 .debug_frame   0x0000000000002768       0x20 ../D8M_Camera_Test_bsp//libhal_bsp.a(alt_busy_sleep.o)
 .debug_frame   0x0000000000002788       0x20 ../D8M_Camera_Test_bsp//libhal_bsp.a(alt_dcache_flush_all.o)
 .debug_frame   0x00000000000027a8       0x2c ../D8M_Camera_Test_bsp//libhal_bsp.a(alt_dev_llist_insert.o)
 .debug_frame   0x00000000000027d4       0x38 ../D8M_Camera_Test_bsp//libhal_bsp.a(alt_do_ctors.o)
 .debug_frame   0x000000000000280c       0x38 ../D8M_Camera_Test_bsp//libhal_bsp.a(alt_do_dtors.o)
 .debug_frame   0x0000000000002844       0x20 ../D8M_Camera_Test_bsp//libhal_bsp.a(alt_icache_flush_all.o)
 .debug_frame   0x0000000000002864       0x50 ../D8M_Camera_Test_bsp//libhal_bsp.a(alt_iic.o)
 .debug_frame   0x00000000000028b4       0x38 ../D8M_Camera_Test_bsp//libhal_bsp.a(alt_iic_isr_register.o)
 .debug_frame   0x00000000000028ec       0x44 ../D8M_Camera_Test_bsp//libhal_bsp.a(alt_io_redirect.o)
 .debug_frame   0x0000000000002930       0x30 ../D8M_Camera_Test_bsp//libhal_bsp.a(alt_irq_handler.o)
 .debug_frame   0x0000000000002960       0x48 ../D8M_Camera_Test_bsp//libhal_bsp.a(alt_open.o)
 .debug_frame   0x00000000000029a8       0x20 ../D8M_Camera_Test_bsp//libhal_bsp.a(altera_nios2_gen2_irq.o)
 .debug_frame   0x00000000000029c8       0x40 ../D8M_Camera_Test_bsp//libhal_bsp.a(alt_find_dev.o)
 .debug_frame   0x0000000000002a08       0x48 ../D8M_Camera_Test_bsp//libhal_bsp.a(alt_find_file.o)
 .debug_frame   0x0000000000002a50       0x20 ../D8M_Camera_Test_bsp//libhal_bsp.a(alt_get_fd.o)
 .debug_frame   0x0000000000002a70       0x20 ../D8M_Camera_Test_bsp//libhal_bsp.a(alt_icache_flush.o)
 .debug_frame   0x0000000000002a90       0x30 ../D8M_Camera_Test_bsp//libhal_bsp.a(alt_instruction_exception_entry.o)
 .debug_frame   0x0000000000002ac0       0x38 ../D8M_Camera_Test_bsp//newlib/nios2-elf/lib/libc.a(lib_a-atexit.o)
 .debug_frame   0x0000000000002af8       0x2c ../D8M_Camera_Test_bsp//newlib/nios2-elf/lib/libc.a(lib_a-exit.o)
 .debug_frame   0x0000000000002b24       0x34 ../D8M_Camera_Test_bsp//newlib/nios2-elf/lib/libc.a(lib_a-memcmp.o)
 .debug_frame   0x0000000000002b58       0x40 ../D8M_Camera_Test_bsp//newlib/nios2-elf/lib/libc.a(lib_a-__atexit.o)
 .debug_frame   0x0000000000002b98       0x48 ../D8M_Camera_Test_bsp//newlib/nios2-elf/lib/libc.a(lib_a-__call_atexit.o)
 .debug_frame   0x0000000000002be0       0x20 ../D8M_Camera_Test_bsp//libhal_bsp.a(alt_exit.o)

.debug_str      0x0000000000000000     0x4b5c
 *(.debug_str)
 .debug_str     0x0000000000000000      0x566 obj/default/1.o
                                        0x61d (size before relaxing)
 .debug_str     0x0000000000000566      0x235 obj/default/I2C_core.o
                                        0x495 (size before relaxing)
 .debug_str     0x000000000000079b       0xad obj/default/auto_focus.o
                                        0x38e (size before relaxing)
 .debug_str     0x0000000000000848       0xa6 obj/default/main.o
                                        0x744 (size before relaxing)
 .debug_str     0x00000000000008ee       0x79 obj/default/mipi_bridge_config.o
                                        0x71f (size before relaxing)
 .debug_str     0x0000000000000967      0x16a obj/default/mipi_camera_config.o
                                        0x829 (size before relaxing)
 .debug_str     0x0000000000000ad1       0x8d obj/default/mipi_helpers.o
                                        0x74f (size before relaxing)
 .debug_str     0x0000000000000b5e       0x98 obj/default/queue.o
                                        0x358 (size before relaxing)
 .debug_str     0x0000000000000bf6      0x200 /home/georgech/intelFPGA_lite/16.1/nios2eds/bin/gnu/H-x86_64-pc-linux-gnu/bin/../lib/gcc/nios2-elf/5.3.0/libgcc.a(adddf3.o)
                                        0x290 (size before relaxing)
 .debug_str     0x0000000000000df6      0x1c1 /home/georgech/intelFPGA_lite/16.1/nios2eds/bin/gnu/H-x86_64-pc-linux-gnu/bin/../lib/gcc/nios2-elf/5.3.0/libgcc.a(muldf3.o)
                                        0x3a9 (size before relaxing)
 .debug_str     0x0000000000000fb7       0x71 /home/georgech/intelFPGA_lite/16.1/nios2eds/bin/gnu/H-x86_64-pc-linux-gnu/bin/../lib/gcc/nios2-elf/5.3.0/libgcc.a(floatsidf.o)
                                        0x229 (size before relaxing)
 .debug_str     0x0000000000001028       0x7a /home/georgech/intelFPGA_lite/16.1/nios2eds/bin/gnu/H-x86_64-pc-linux-gnu/bin/../lib/gcc/nios2-elf/5.3.0/libgcc.a(extendsfdf2.o)
                                        0x236 (size before relaxing)
 .debug_str     0x00000000000010a2       0x51 /home/georgech/intelFPGA_lite/16.1/nios2eds/bin/gnu/H-x86_64-pc-linux-gnu/bin/../lib/gcc/nios2-elf/5.3.0/libgcc.a(truncdfsf2.o)
                                        0x240 (size before relaxing)
 .debug_str     0x00000000000010f3       0x63 /home/georgech/intelFPGA_lite/16.1/nios2eds/bin/gnu/H-x86_64-pc-linux-gnu/bin/../lib/gcc/nios2-elf/5.3.0/libgcc.a(_clzsi2.o)
                                        0x1e7 (size before relaxing)
 .debug_str     0x0000000000001156      0x1ca /home/georgech/intelFPGA_lite/16.1/nios2eds/bin/gnu/H-x86_64-pc-linux-gnu/bin/../lib/gcc/nios2-elf/5.3.0/libgcc.a(_clz.o)
 .debug_str     0x0000000000001156      0x243 ../D8M_Camera_Test_bsp//newlib/nios2-elf/lib/libc.a(lib_a-fprintf.o)
                                        0x6a4 (size before relaxing)
 .debug_str     0x0000000000001399       0x70 ../D8M_Camera_Test_bsp//newlib/nios2-elf/lib/libc.a(lib_a-fputc.o)
                                        0x6a3 (size before relaxing)
 .debug_str     0x0000000000001409       0x9f ../D8M_Camera_Test_bsp//newlib/nios2-elf/lib/libc.a(lib_a-fwrite.o)
                                        0x6e2 (size before relaxing)
 .debug_str     0x00000000000014a8       0x5d ../D8M_Camera_Test_bsp//newlib/nios2-elf/lib/libc.a(lib_a-getc.o)
                                        0x69b (size before relaxing)
 .debug_str     0x0000000000001505       0x71 ../D8M_Camera_Test_bsp//newlib/nios2-elf/lib/libc.a(lib_a-impure.o)
                                        0x68d (size before relaxing)
 .debug_str     0x0000000000001576       0x5f ../D8M_Camera_Test_bsp//newlib/nios2-elf/lib/libc.a(lib_a-malloc.o)
                                        0x68e (size before relaxing)
 .debug_str     0x00000000000015d5      0x21a ../D8M_Camera_Test_bsp//newlib/nios2-elf/lib/libc.a(lib_a-mallocr.o)
                                        0x863 (size before relaxing)
 .debug_str     0x00000000000017ef       0x6e ../D8M_Camera_Test_bsp//newlib/nios2-elf/lib/libc.a(lib_a-memset.o)
                                        0x2cf (size before relaxing)
 .debug_str     0x000000000000185d       0x5c ../D8M_Camera_Test_bsp//newlib/nios2-elf/lib/libc.a(lib_a-printf.o)
                                        0x6a8 (size before relaxing)
 .debug_str     0x00000000000018b9       0x58 ../D8M_Camera_Test_bsp//newlib/nios2-elf/lib/libc.a(lib_a-putc.o)
                                        0x69b (size before relaxing)
 .debug_str     0x0000000000001911       0x5d ../D8M_Camera_Test_bsp//newlib/nios2-elf/lib/libc.a(lib_a-puts.o)
                                        0x6d8 (size before relaxing)
 .debug_str     0x000000000000196e       0x62 ../D8M_Camera_Test_bsp//newlib/nios2-elf/lib/libc.a(lib_a-rget.o)
                                        0x693 (size before relaxing)
 .debug_str     0x00000000000019d0       0x6d ../D8M_Camera_Test_bsp//newlib/nios2-elf/lib/libc.a(lib_a-sbrkr.o)
                                        0x683 (size before relaxing)
 .debug_str     0x0000000000001a3d       0x5a ../D8M_Camera_Test_bsp//newlib/nios2-elf/lib/libc.a(lib_a-strlen.o)
                                        0x2ce (size before relaxing)
 .debug_str     0x0000000000001a97      0x369 ../D8M_Camera_Test_bsp//newlib/nios2-elf/lib/libc.a(lib_a-vfprintf.o)
                                        0x8ba (size before relaxing)
 .debug_str     0x0000000000001e00       0x62 ../D8M_Camera_Test_bsp//newlib/nios2-elf/lib/libc.a(lib_a-wbuf.o)
                                        0x693 (size before relaxing)
 .debug_str     0x0000000000001e62       0x5e ../D8M_Camera_Test_bsp//newlib/nios2-elf/lib/libc.a(lib_a-wsetup.o)
                                        0x68f (size before relaxing)
 .debug_str     0x0000000000001ec0      0x11a ../D8M_Camera_Test_bsp//newlib/nios2-elf/lib/libc.a(lib_a-dtoa.o)
                                        0x767 (size before relaxing)
 .debug_str     0x0000000000001fda       0x7f ../D8M_Camera_Test_bsp//newlib/nios2-elf/lib/libc.a(lib_a-fflush.o)
                                        0x6d0 (size before relaxing)
 .debug_str     0x0000000000002059      0x1b1 ../D8M_Camera_Test_bsp//newlib/nios2-elf/lib/libc.a(lib_a-findfp.o)
                                        0x80d (size before relaxing)
 .debug_str     0x000000000000220a       0x3c ../D8M_Camera_Test_bsp//newlib/nios2-elf/lib/libc.a(lib_a-freer.o)
                                        0x7b5 (size before relaxing)
 .debug_str     0x0000000000002246       0x7e ../D8M_Camera_Test_bsp//newlib/nios2-elf/lib/libc.a(lib_a-fvwrite.o)
                                        0x6d6 (size before relaxing)
 .debug_str     0x00000000000022c4       0x74 ../D8M_Camera_Test_bsp//newlib/nios2-elf/lib/libc.a(lib_a-fwalk.o)
                                        0x692 (size before relaxing)
 .debug_str     0x0000000000002338       0x55 ../D8M_Camera_Test_bsp//newlib/nios2-elf/lib/libc.a(lib_a-int_errno.o)
                                        0x2b5 (size before relaxing)
 .debug_str     0x000000000000238d      0x22e ../D8M_Camera_Test_bsp//newlib/nios2-elf/lib/libc.a(lib_a-locale.o)
                                        0x8e2 (size before relaxing)
 .debug_str     0x00000000000025bb      0x134 ../D8M_Camera_Test_bsp//newlib/nios2-elf/lib/libc.a(lib_a-makebuf.o)
                                        0x772 (size before relaxing)
 .debug_str     0x00000000000026ef       0x68 ../D8M_Camera_Test_bsp//newlib/nios2-elf/lib/libc.a(lib_a-memchr.o)
                                        0x2d5 (size before relaxing)
 .debug_str     0x0000000000002757       0x81 ../D8M_Camera_Test_bsp//newlib/nios2-elf/lib/libc.a(lib_a-memcpy.o)
                                        0x2e2 (size before relaxing)
 .debug_str     0x00000000000027d8       0x65 ../D8M_Camera_Test_bsp//newlib/nios2-elf/lib/libc.a(lib_a-memmove.o)
                                        0x2ee (size before relaxing)
 .debug_str     0x000000000000283d      0x110 ../D8M_Camera_Test_bsp//newlib/nios2-elf/lib/libc.a(lib_a-mprec.o)
                                        0x774 (size before relaxing)
 .debug_str     0x000000000000294d       0x59 ../D8M_Camera_Test_bsp//newlib/nios2-elf/lib/libc.a(lib_a-reallocr.o)
                                        0x735 (size before relaxing)
 .debug_str     0x00000000000029a6       0x70 ../D8M_Camera_Test_bsp//newlib/nios2-elf/lib/libc.a(lib_a-refill.o)
                                        0x6a8 (size before relaxing)
 .debug_str     0x0000000000002a16       0x89 ../D8M_Camera_Test_bsp//newlib/nios2-elf/lib/libc.a(lib_a-s_fpclassify.o)
                                        0x301 (size before relaxing)
 .debug_str     0x0000000000002a9f       0x8e ../D8M_Camera_Test_bsp//newlib/nios2-elf/lib/libc.a(lib_a-stdio.o)
                                        0x6be (size before relaxing)
 .debug_str     0x0000000000002b2d       0x5a ../D8M_Camera_Test_bsp//newlib/nios2-elf/lib/libc.a(lib_a-strcmp.o)
                                        0x2b4 (size before relaxing)
 .debug_str     0x0000000000002b87       0x40 ../D8M_Camera_Test_bsp//newlib/nios2-elf/lib/libc.a(lib_a-vfiprintf.o)
                                        0x826 (size before relaxing)
 .debug_str     0x0000000000002bc7       0x5b ../D8M_Camera_Test_bsp//newlib/nios2-elf/lib/libc.a(lib_a-writer.o)
                                        0x681 (size before relaxing)
 .debug_str     0x0000000000002c22       0x5b ../D8M_Camera_Test_bsp//newlib/nios2-elf/lib/libc.a(closer.o)
                                        0x671 (size before relaxing)
 .debug_str     0x0000000000002c7d       0x19 ../D8M_Camera_Test_bsp//newlib/nios2-elf/lib/libc.a(lib_a-callocr.o)
                                        0x6b4 (size before relaxing)
 .debug_str     0x0000000000002c96       0x63 ../D8M_Camera_Test_bsp//newlib/nios2-elf/lib/libc.a(lib_a-fclose.o)
                                        0x699 (size before relaxing)
 .debug_str     0x0000000000002cf9       0x65 ../D8M_Camera_Test_bsp//newlib/nios2-elf/lib/libc.a(lib_a-fputwc.o)
                                        0x6ad (size before relaxing)
 .debug_str     0x0000000000002d5e       0x61 ../D8M_Camera_Test_bsp//newlib/nios2-elf/lib/libc.a(lib_a-fstatr.o)
                                        0x75d (size before relaxing)
 .debug_str     0x0000000000002dbf       0x5d ../D8M_Camera_Test_bsp//newlib/nios2-elf/lib/libc.a(lib_a-isattyr.o)
                                        0x673 (size before relaxing)
 .debug_str     0x0000000000002e1c       0x5b ../D8M_Camera_Test_bsp//newlib/nios2-elf/lib/libc.a(lib_a-lseekr.o)
                                        0x678 (size before relaxing)
 .debug_str     0x0000000000002e77       0x59 ../D8M_Camera_Test_bsp//newlib/nios2-elf/lib/libc.a(lib_a-readr.o)
                                        0x67f (size before relaxing)
 .debug_str     0x0000000000002ed0       0x77 ../D8M_Camera_Test_bsp//newlib/nios2-elf/lib/libc.a(lib_a-wcrtomb.o)
                                        0x6b2 (size before relaxing)
 .debug_str     0x0000000000002f47       0x75 ../D8M_Camera_Test_bsp//newlib/nios2-elf/lib/libc.a(lib_a-wctomb_r.o)
                                        0x6bb (size before relaxing)
 .debug_str     0x0000000000002fbc       0xe5 /home/georgech/intelFPGA_lite/16.1/nios2eds/bin/gnu/H-x86_64-pc-linux-gnu/bin/../lib/gcc/nios2-elf/5.3.0/libgcc.a(_udivdi3.o)
                                        0x283 (size before relaxing)
 .debug_str     0x00000000000030a1        0xa /home/georgech/intelFPGA_lite/16.1/nios2eds/bin/gnu/H-x86_64-pc-linux-gnu/bin/../lib/gcc/nios2-elf/5.3.0/libgcc.a(_umoddi3.o)
                                        0x283 (size before relaxing)
 .debug_str     0x00000000000030ab       0x7c /home/georgech/intelFPGA_lite/16.1/nios2eds/bin/gnu/H-x86_64-pc-linux-gnu/bin/../lib/gcc/nios2-elf/5.3.0/libgcc.a(lib2-divmod.o)
                                        0x1b9 (size before relaxing)
 .debug_str     0x0000000000003127       0xe5 /home/georgech/intelFPGA_lite/16.1/nios2eds/bin/gnu/H-x86_64-pc-linux-gnu/bin/../lib/gcc/nios2-elf/5.3.0/libgcc.a(divdf3.o)
                                        0x348 (size before relaxing)
 .debug_str     0x000000000000320c       0x34 /home/georgech/intelFPGA_lite/16.1/nios2eds/bin/gnu/H-x86_64-pc-linux-gnu/bin/../lib/gcc/nios2-elf/5.3.0/libgcc.a(eqdf2.o)
                                        0x1f6 (size before relaxing)
 .debug_str     0x0000000000003240       0x58 /home/georgech/intelFPGA_lite/16.1/nios2eds/bin/gnu/H-x86_64-pc-linux-gnu/bin/../lib/gcc/nios2-elf/5.3.0/libgcc.a(gedf2.o)
                                        0x21a (size before relaxing)
 .debug_str     0x0000000000003298       0x34 /home/georgech/intelFPGA_lite/16.1/nios2eds/bin/gnu/H-x86_64-pc-linux-gnu/bin/../lib/gcc/nios2-elf/5.3.0/libgcc.a(ledf2.o)
                                        0x21a (size before relaxing)
 .debug_str     0x00000000000032cc       0x36 /home/georgech/intelFPGA_lite/16.1/nios2eds/bin/gnu/H-x86_64-pc-linux-gnu/bin/../lib/gcc/nios2-elf/5.3.0/libgcc.a(subdf3.o)
                                        0x290 (size before relaxing)
 .debug_str     0x0000000000003302       0x4b /home/georgech/intelFPGA_lite/16.1/nios2eds/bin/gnu/H-x86_64-pc-linux-gnu/bin/../lib/gcc/nios2-elf/5.3.0/libgcc.a(fixdfsi.o)
                                        0x212 (size before relaxing)
 .debug_str     0x000000000000334d       0x40 /home/georgech/intelFPGA_lite/16.1/nios2eds/bin/gnu/H-x86_64-pc-linux-gnu/bin/../lib/gcc/nios2-elf/5.3.0/libgcc.a(floatunsidf.o)
                                        0x226 (size before relaxing)
 .debug_str     0x000000000000338d      0x24e ../D8M_Camera_Test_bsp//libhal_bsp.a(alt_close.o)
                                        0x34c (size before relaxing)
 .debug_str     0x00000000000035db       0x49 ../D8M_Camera_Test_bsp//libhal_bsp.a(alt_dev.o)
                                        0x437 (size before relaxing)
 .debug_str     0x0000000000003624       0x7d ../D8M_Camera_Test_bsp//libhal_bsp.a(alt_errno.o)
                                        0x295 (size before relaxing)
 .debug_str     0x00000000000036a1       0x1f ../D8M_Camera_Test_bsp//libhal_bsp.a(alt_fcntl.o)
                                        0x460 (size before relaxing)
 .debug_str     0x00000000000036c0       0x14 ../D8M_Camera_Test_bsp//libhal_bsp.a(alt_fstat.o)
                                        0x41e (size before relaxing)
 .debug_str     0x00000000000036d4       0x1c ../D8M_Camera_Test_bsp//libhal_bsp.a(alt_isatty.o)
                                        0x426 (size before relaxing)
 .debug_str     0x00000000000036f0      0x113 ../D8M_Camera_Test_bsp//libhal_bsp.a(alt_load.o)
                                        0x393 (size before relaxing)
 .debug_str     0x0000000000003803       0x14 ../D8M_Camera_Test_bsp//libhal_bsp.a(alt_lseek.o)
                                        0x343 (size before relaxing)
 .debug_str     0x0000000000003817       0x78 ../D8M_Camera_Test_bsp//libhal_bsp.a(alt_main.o)
                                        0x31a (size before relaxing)
 .debug_str     0x000000000000388f       0x2a ../D8M_Camera_Test_bsp//libhal_bsp.a(alt_malloc_lock.o)
                                        0x651 (size before relaxing)
 .debug_str     0x00000000000038b9       0x13 ../D8M_Camera_Test_bsp//libhal_bsp.a(alt_read.o)
                                        0x429 (size before relaxing)
 .debug_str     0x00000000000038cc       0x19 ../D8M_Camera_Test_bsp//libhal_bsp.a(alt_release_fd.o)
                                        0x305 (size before relaxing)
 .debug_str     0x00000000000038e5       0x98 ../D8M_Camera_Test_bsp//libhal_bsp.a(alt_sbrk.o)
                                        0x306 (size before relaxing)
 .debug_str     0x000000000000397d       0x78 ../D8M_Camera_Test_bsp//libhal_bsp.a(alt_tick.o)
                                        0x384 (size before relaxing)
 .debug_str     0x00000000000039f5       0x36 ../D8M_Camera_Test_bsp//libhal_bsp.a(alt_usleep.o)
                                        0x2a7 (size before relaxing)
 .debug_str     0x0000000000003a2b       0x14 ../D8M_Camera_Test_bsp//libhal_bsp.a(alt_write.o)
                                        0x42a (size before relaxing)
 .debug_str     0x0000000000003a3f      0x245 ../D8M_Camera_Test_bsp//libhal_bsp.a(alt_sys_init.o)
                                        0x5d4 (size before relaxing)
 .debug_str     0x0000000000003c84      0x123 ../D8M_Camera_Test_bsp//libhal_bsp.a(altera_avalon_jtag_uart_fd.o)
                                        0x54d (size before relaxing)
 .debug_str     0x0000000000003da7       0xa5 ../D8M_Camera_Test_bsp//libhal_bsp.a(altera_avalon_jtag_uart_init.o)
                                        0x48e (size before relaxing)
 .debug_str     0x0000000000003e4c       0x2c ../D8M_Camera_Test_bsp//libhal_bsp.a(altera_avalon_jtag_uart_ioctl.o)
                                        0x3c5 (size before relaxing)
 .debug_str     0x0000000000003e78       0x2b ../D8M_Camera_Test_bsp//libhal_bsp.a(altera_avalon_jtag_uart_read.o)
                                        0x421 (size before relaxing)
 .debug_str     0x0000000000003ea3       0x2c ../D8M_Camera_Test_bsp//libhal_bsp.a(altera_avalon_jtag_uart_write.o)
                                        0x422 (size before relaxing)
 .debug_str     0x0000000000003ecf       0x54 ../D8M_Camera_Test_bsp//libhal_bsp.a(altera_avalon_timer_sc.o)
                                        0x39a (size before relaxing)
 .debug_str     0x0000000000003f23       0xc1 ../D8M_Camera_Test_bsp//libhal_bsp.a(altera_avalon_uart_fd.o)
                                        0x471 (size before relaxing)
 .debug_str     0x0000000000003fe4       0x6f ../D8M_Camera_Test_bsp//libhal_bsp.a(altera_avalon_uart_init.o)
                                        0x3fd (size before relaxing)
 .debug_str     0x0000000000004053       0x37 ../D8M_Camera_Test_bsp//libhal_bsp.a(altera_avalon_uart_read.o)
                                        0x3ca (size before relaxing)
 .debug_str     0x000000000000408a       0x30 ../D8M_Camera_Test_bsp//libhal_bsp.a(altera_avalon_uart_write.o)
                                        0x3be (size before relaxing)
 .debug_str     0x00000000000040ba       0x3a ../D8M_Camera_Test_bsp//libhal_bsp.a(alt_alarm_start.o)
                                        0x3b0 (size before relaxing)
 .debug_str     0x00000000000040f4       0x33 ../D8M_Camera_Test_bsp//libhal_bsp.a(alt_busy_sleep.o)
                                        0x29d (size before relaxing)
 .debug_str     0x0000000000004127       0x1f ../D8M_Camera_Test_bsp//libhal_bsp.a(alt_dcache_flush_all.o)
                                        0x287 (size before relaxing)
 .debug_str     0x0000000000004146       0x1f ../D8M_Camera_Test_bsp//libhal_bsp.a(alt_dev_llist_insert.o)
                                        0x31c (size before relaxing)
 .debug_str     0x0000000000004165       0x3e ../D8M_Camera_Test_bsp//libhal_bsp.a(alt_do_ctors.o)
                                        0x220 (size before relaxing)
 .debug_str     0x00000000000041a3       0x4c ../D8M_Camera_Test_bsp//libhal_bsp.a(alt_do_dtors.o)
                                        0x21f (size before relaxing)
 .debug_str     0x00000000000041ef       0x30 ../D8M_Camera_Test_bsp//libhal_bsp.a(alt_icache_flush_all.o)
                                        0x298 (size before relaxing)
 .debug_str     0x000000000000421f       0xbe ../D8M_Camera_Test_bsp//libhal_bsp.a(alt_iic.o)
                                        0x385 (size before relaxing)
 .debug_str     0x00000000000042dd       0x37 ../D8M_Camera_Test_bsp//libhal_bsp.a(alt_iic_isr_register.o)
                                        0x33f (size before relaxing)
 .debug_str     0x0000000000004314       0x46 ../D8M_Camera_Test_bsp//libhal_bsp.a(alt_io_redirect.o)
                                        0x457 (size before relaxing)
 .debug_str     0x000000000000435a       0x3a ../D8M_Camera_Test_bsp//libhal_bsp.a(alt_irq_handler.o)
                                        0x2c9 (size before relaxing)
 .debug_str     0x0000000000004394       0x17 ../D8M_Camera_Test_bsp//libhal_bsp.a(alt_irq_vars.o)
                                        0x26c (size before relaxing)
 .debug_str     0x00000000000043ab       0x4f ../D8M_Camera_Test_bsp//libhal_bsp.a(alt_open.o)
                                        0x3b2 (size before relaxing)
 .debug_str     0x00000000000043fa       0x20 ../D8M_Camera_Test_bsp//libhal_bsp.a(altera_nios2_gen2_irq.o)
                                        0x28e (size before relaxing)
 .debug_str     0x000000000000441a       0x1e ../D8M_Camera_Test_bsp//libhal_bsp.a(alt_find_dev.o)
                                        0x32c (size before relaxing)
 .debug_str     0x0000000000004438       0x18 ../D8M_Camera_Test_bsp//libhal_bsp.a(alt_find_file.o)
                                        0x33a (size before relaxing)
 .debug_str     0x0000000000004450       0x25 ../D8M_Camera_Test_bsp//libhal_bsp.a(alt_get_fd.o)
                                        0x34e (size before relaxing)
 .debug_str     0x0000000000004475       0x1b ../D8M_Camera_Test_bsp//libhal_bsp.a(alt_icache_flush.o)
                                        0x28d (size before relaxing)
 .debug_str     0x0000000000004490      0x48b ../D8M_Camera_Test_bsp//libhal_bsp.a(alt_instruction_exception_entry.o)
                                        0x6d2 (size before relaxing)
 .debug_str     0x000000000000491b       0x83 ../D8M_Camera_Test_bsp//newlib/nios2-elf/lib/libc.a(lib_a-atexit.o)
                                        0x2e4 (size before relaxing)
 .debug_str     0x000000000000499e       0x51 ../D8M_Camera_Test_bsp//newlib/nios2-elf/lib/libc.a(lib_a-exit.o)
                                        0x67e (size before relaxing)
 .debug_str     0x00000000000049ef       0x53 ../D8M_Camera_Test_bsp//newlib/nios2-elf/lib/libc.a(lib_a-memcmp.o)
                                        0x2bb (size before relaxing)
 .debug_str     0x0000000000004a42       0x69 ../D8M_Camera_Test_bsp//newlib/nios2-elf/lib/libc.a(lib_a-__atexit.o)
                                        0x6c6 (size before relaxing)
 .debug_str     0x0000000000004aab       0x87 ../D8M_Camera_Test_bsp//newlib/nios2-elf/lib/libc.a(lib_a-__call_atexit.o)
                                        0x6b4 (size before relaxing)
 .debug_str     0x0000000000004b32       0x2a ../D8M_Camera_Test_bsp//libhal_bsp.a(alt_exit.o)
                                        0x283 (size before relaxing)

.debug_loc      0x0000000000000000     0xb430
 *(.debug_loc)
 .debug_loc     0x0000000000000000     0x16f9 /home/georgech/intelFPGA_lite/16.1/nios2eds/bin/gnu/H-x86_64-pc-linux-gnu/bin/../lib/gcc/nios2-elf/5.3.0/libgcc.a(adddf3.o)
 .debug_loc     0x00000000000016f9     0x100d /home/georgech/intelFPGA_lite/16.1/nios2eds/bin/gnu/H-x86_64-pc-linux-gnu/bin/../lib/gcc/nios2-elf/5.3.0/libgcc.a(muldf3.o)
 .debug_loc     0x0000000000002706      0x175 /home/georgech/intelFPGA_lite/16.1/nios2eds/bin/gnu/H-x86_64-pc-linux-gnu/bin/../lib/gcc/nios2-elf/5.3.0/libgcc.a(floatsidf.o)
 .debug_loc     0x000000000000287b      0x26d /home/georgech/intelFPGA_lite/16.1/nios2eds/bin/gnu/H-x86_64-pc-linux-gnu/bin/../lib/gcc/nios2-elf/5.3.0/libgcc.a(extendsfdf2.o)
 .debug_loc     0x0000000000002ae8      0x359 /home/georgech/intelFPGA_lite/16.1/nios2eds/bin/gnu/H-x86_64-pc-linux-gnu/bin/../lib/gcc/nios2-elf/5.3.0/libgcc.a(truncdfsf2.o)
 .debug_loc     0x0000000000002e41       0x6b /home/georgech/intelFPGA_lite/16.1/nios2eds/bin/gnu/H-x86_64-pc-linux-gnu/bin/../lib/gcc/nios2-elf/5.3.0/libgcc.a(_clzsi2.o)
 .debug_loc     0x0000000000002eac     0x10ca /home/georgech/intelFPGA_lite/16.1/nios2eds/bin/gnu/H-x86_64-pc-linux-gnu/bin/../lib/gcc/nios2-elf/5.3.0/libgcc.a(_udivdi3.o)
 .debug_loc     0x0000000000003f76     0x10ad /home/georgech/intelFPGA_lite/16.1/nios2eds/bin/gnu/H-x86_64-pc-linux-gnu/bin/../lib/gcc/nios2-elf/5.3.0/libgcc.a(_umoddi3.o)
 .debug_loc     0x0000000000005023      0x4ce /home/georgech/intelFPGA_lite/16.1/nios2eds/bin/gnu/H-x86_64-pc-linux-gnu/bin/../lib/gcc/nios2-elf/5.3.0/libgcc.a(lib2-divmod.o)
 .debug_loc     0x00000000000054f1     0x1fc6 /home/georgech/intelFPGA_lite/16.1/nios2eds/bin/gnu/H-x86_64-pc-linux-gnu/bin/../lib/gcc/nios2-elf/5.3.0/libgcc.a(divdf3.o)
 .debug_loc     0x00000000000074b7       0x68 /home/georgech/intelFPGA_lite/16.1/nios2eds/bin/gnu/H-x86_64-pc-linux-gnu/bin/../lib/gcc/nios2-elf/5.3.0/libgcc.a(eqdf2.o)
 .debug_loc     0x000000000000751f       0xf9 /home/georgech/intelFPGA_lite/16.1/nios2eds/bin/gnu/H-x86_64-pc-linux-gnu/bin/../lib/gcc/nios2-elf/5.3.0/libgcc.a(gedf2.o)
 .debug_loc     0x0000000000007618      0x163 /home/georgech/intelFPGA_lite/16.1/nios2eds/bin/gnu/H-x86_64-pc-linux-gnu/bin/../lib/gcc/nios2-elf/5.3.0/libgcc.a(ledf2.o)
 .debug_loc     0x000000000000777b     0x1627 /home/georgech/intelFPGA_lite/16.1/nios2eds/bin/gnu/H-x86_64-pc-linux-gnu/bin/../lib/gcc/nios2-elf/5.3.0/libgcc.a(subdf3.o)
 .debug_loc     0x0000000000008da2      0x121 /home/georgech/intelFPGA_lite/16.1/nios2eds/bin/gnu/H-x86_64-pc-linux-gnu/bin/../lib/gcc/nios2-elf/5.3.0/libgcc.a(fixdfsi.o)
 .debug_loc     0x0000000000008ec3      0x19e /home/georgech/intelFPGA_lite/16.1/nios2eds/bin/gnu/H-x86_64-pc-linux-gnu/bin/../lib/gcc/nios2-elf/5.3.0/libgcc.a(floatunsidf.o)
 .debug_loc     0x0000000000009061       0xdd ../D8M_Camera_Test_bsp//libhal_bsp.a(alt_close.o)
 .debug_loc     0x000000000000913e       0x8f ../D8M_Camera_Test_bsp//libhal_bsp.a(alt_fcntl.o)
 .debug_loc     0x00000000000091cd       0x84 ../D8M_Camera_Test_bsp//libhal_bsp.a(alt_fstat.o)
 .debug_loc     0x0000000000009251       0x45 ../D8M_Camera_Test_bsp//libhal_bsp.a(alt_isatty.o)
 .debug_loc     0x0000000000009296      0x13f ../D8M_Camera_Test_bsp//libhal_bsp.a(alt_lseek.o)
 .debug_loc     0x00000000000093d5       0x1e ../D8M_Camera_Test_bsp//libhal_bsp.a(alt_main.o)
 .debug_loc     0x00000000000093f3      0x17a ../D8M_Camera_Test_bsp//libhal_bsp.a(alt_read.o)
 .debug_loc     0x000000000000956d       0x21 ../D8M_Camera_Test_bsp//libhal_bsp.a(alt_release_fd.o)
 .debug_loc     0x000000000000958e       0x6d ../D8M_Camera_Test_bsp//libhal_bsp.a(alt_sbrk.o)
 .debug_loc     0x00000000000095fb       0xdd ../D8M_Camera_Test_bsp//libhal_bsp.a(alt_tick.o)
 .debug_loc     0x00000000000096d8       0x21 ../D8M_Camera_Test_bsp//libhal_bsp.a(alt_usleep.o)
 .debug_loc     0x00000000000096f9      0x17a ../D8M_Camera_Test_bsp//libhal_bsp.a(alt_write.o)
 .debug_loc     0x0000000000009873       0x39 ../D8M_Camera_Test_bsp//libhal_bsp.a(alt_sys_init.o)
 .debug_loc     0x00000000000098ac      0x1d3 ../D8M_Camera_Test_bsp//libhal_bsp.a(altera_avalon_jtag_uart_fd.o)
 .debug_loc     0x0000000000009a7f      0x164 ../D8M_Camera_Test_bsp//libhal_bsp.a(altera_avalon_jtag_uart_init.o)
 .debug_loc     0x0000000000009be3       0xad ../D8M_Camera_Test_bsp//libhal_bsp.a(altera_avalon_jtag_uart_ioctl.o)
 .debug_loc     0x0000000000009c90      0x205 ../D8M_Camera_Test_bsp//libhal_bsp.a(altera_avalon_jtag_uart_read.o)
 .debug_loc     0x0000000000009e95      0x1ec ../D8M_Camera_Test_bsp//libhal_bsp.a(altera_avalon_jtag_uart_write.o)
 .debug_loc     0x000000000000a081       0xec ../D8M_Camera_Test_bsp//libhal_bsp.a(altera_avalon_timer_sc.o)
 .debug_loc     0x000000000000a16d      0x144 ../D8M_Camera_Test_bsp//libhal_bsp.a(altera_avalon_uart_fd.o)
 .debug_loc     0x000000000000a2b1      0x1a1 ../D8M_Camera_Test_bsp//libhal_bsp.a(altera_avalon_uart_init.o)
 .debug_loc     0x000000000000a452      0x1f1 ../D8M_Camera_Test_bsp//libhal_bsp.a(altera_avalon_uart_read.o)
 .debug_loc     0x000000000000a643      0x185 ../D8M_Camera_Test_bsp//libhal_bsp.a(altera_avalon_uart_write.o)
 .debug_loc     0x000000000000a7c8       0xaf ../D8M_Camera_Test_bsp//libhal_bsp.a(alt_alarm_start.o)
 .debug_loc     0x000000000000a877       0x62 ../D8M_Camera_Test_bsp//libhal_bsp.a(alt_busy_sleep.o)
 .debug_loc     0x000000000000a8d9       0x1f ../D8M_Camera_Test_bsp//libhal_bsp.a(alt_dcache_flush_all.o)
 .debug_loc     0x000000000000a8f8       0x7e ../D8M_Camera_Test_bsp//libhal_bsp.a(alt_dev_llist_insert.o)
 .debug_loc     0x000000000000a976       0x2b ../D8M_Camera_Test_bsp//libhal_bsp.a(alt_do_ctors.o)
 .debug_loc     0x000000000000a9a1       0x2b ../D8M_Camera_Test_bsp//libhal_bsp.a(alt_do_dtors.o)
 .debug_loc     0x000000000000a9cc      0x170 ../D8M_Camera_Test_bsp//libhal_bsp.a(alt_iic.o)
 .debug_loc     0x000000000000ab3c      0x193 ../D8M_Camera_Test_bsp//libhal_bsp.a(alt_iic_isr_register.o)
 .debug_loc     0x000000000000accf      0x1d2 ../D8M_Camera_Test_bsp//libhal_bsp.a(alt_io_redirect.o)
 .debug_loc     0x000000000000aea1       0x51 ../D8M_Camera_Test_bsp//libhal_bsp.a(alt_irq_handler.o)
 .debug_loc     0x000000000000aef2      0x2ec ../D8M_Camera_Test_bsp//libhal_bsp.a(alt_open.o)
 .debug_loc     0x000000000000b1de       0x7e ../D8M_Camera_Test_bsp//libhal_bsp.a(alt_find_dev.o)
 .debug_loc     0x000000000000b25c       0x94 ../D8M_Camera_Test_bsp//libhal_bsp.a(alt_find_file.o)
 .debug_loc     0x000000000000b2f0       0x3f ../D8M_Camera_Test_bsp//libhal_bsp.a(alt_get_fd.o)
 .debug_loc     0x000000000000b32f       0x52 ../D8M_Camera_Test_bsp//libhal_bsp.a(alt_icache_flush.o)
 .debug_loc     0x000000000000b381       0xaf ../D8M_Camera_Test_bsp//libhal_bsp.a(alt_instruction_exception_entry.o)

.debug_macinfo
 *(.debug_macinfo)

.debug_weaknames
 *(.debug_weaknames)

.debug_funcnames
 *(.debug_funcnames)

.debug_typenames
 *(.debug_typenames)

.debug_varnames
 *(.debug_varnames)

.debug_alt_sim_info
                0x0000000000000000       0x60
 *(.debug_alt_sim_info)
 .debug_alt_sim_info
                0x0000000000000000       0x30 ../D8M_Camera_Test_bsp//obj/HAL/src/crt0.o
 .debug_alt_sim_info
                0x0000000000000030       0x30 ../D8M_Camera_Test_bsp//libhal_bsp.a(alt_busy_sleep.o)
                0x0000000000040000                __alt_data_end = 0x40000
                0x0000000000040000                PROVIDE (__alt_stack_pointer, __alt_data_end)
                [!provide]                        PROVIDE (__alt_stack_limit, __alt_stack_base)
                0x000000000003bbb8                PROVIDE (__alt_heap_start, end)
                0x0000000000040000                PROVIDE (__alt_heap_limit, 0x40000)
OUTPUT(D8M_Camera_Test.elf elf32-littlenios2)

.debug_ranges   0x0000000000000000     0x1820
 .debug_ranges  0x0000000000000000       0x20 ../D8M_Camera_Test_bsp//obj/HAL/src/crt0.o
 .debug_ranges  0x0000000000000020      0x240 /home/georgech/intelFPGA_lite/16.1/nios2eds/bin/gnu/H-x86_64-pc-linux-gnu/bin/../lib/gcc/nios2-elf/5.3.0/libgcc.a(adddf3.o)
 .debug_ranges  0x0000000000000260      0x1f0 /home/georgech/intelFPGA_lite/16.1/nios2eds/bin/gnu/H-x86_64-pc-linux-gnu/bin/../lib/gcc/nios2-elf/5.3.0/libgcc.a(muldf3.o)
 .debug_ranges  0x0000000000000450       0x20 /home/georgech/intelFPGA_lite/16.1/nios2eds/bin/gnu/H-x86_64-pc-linux-gnu/bin/../lib/gcc/nios2-elf/5.3.0/libgcc.a(floatsidf.o)
 .debug_ranges  0x0000000000000470       0x48 /home/georgech/intelFPGA_lite/16.1/nios2eds/bin/gnu/H-x86_64-pc-linux-gnu/bin/../lib/gcc/nios2-elf/5.3.0/libgcc.a(extendsfdf2.o)
 .debug_ranges  0x00000000000004b8       0x38 /home/georgech/intelFPGA_lite/16.1/nios2eds/bin/gnu/H-x86_64-pc-linux-gnu/bin/../lib/gcc/nios2-elf/5.3.0/libgcc.a(truncdfsf2.o)
 .debug_ranges  0x00000000000004f0       0x18 /home/georgech/intelFPGA_lite/16.1/nios2eds/bin/gnu/H-x86_64-pc-linux-gnu/bin/../lib/gcc/nios2-elf/5.3.0/libgcc.a(_clzsi2.o)
 .debug_ranges  0x0000000000000508       0x18 ../D8M_Camera_Test_bsp//newlib/nios2-elf/lib/libc.a(lib_a-fprintf.o)
 .debug_ranges  0x0000000000000520       0x18 ../D8M_Camera_Test_bsp//newlib/nios2-elf/lib/libc.a(lib_a-fputc.o)
 .debug_ranges  0x0000000000000538       0x18 ../D8M_Camera_Test_bsp//newlib/nios2-elf/lib/libc.a(lib_a-fwrite.o)
 .debug_ranges  0x0000000000000550       0x18 ../D8M_Camera_Test_bsp//newlib/nios2-elf/lib/libc.a(lib_a-getc.o)
 .debug_ranges  0x0000000000000568       0x18 ../D8M_Camera_Test_bsp//newlib/nios2-elf/lib/libc.a(lib_a-malloc.o)
 .debug_ranges  0x0000000000000580       0x18 ../D8M_Camera_Test_bsp//newlib/nios2-elf/lib/libc.a(lib_a-mallocr.o)
 .debug_ranges  0x0000000000000598       0x10 ../D8M_Camera_Test_bsp//newlib/nios2-elf/lib/libc.a(lib_a-memset.o)
 .debug_ranges  0x00000000000005a8       0x18 ../D8M_Camera_Test_bsp//newlib/nios2-elf/lib/libc.a(lib_a-printf.o)
 .debug_ranges  0x00000000000005c0       0x18 ../D8M_Camera_Test_bsp//newlib/nios2-elf/lib/libc.a(lib_a-putc.o)
 .debug_ranges  0x00000000000005d8       0x18 ../D8M_Camera_Test_bsp//newlib/nios2-elf/lib/libc.a(lib_a-puts.o)
 .debug_ranges  0x00000000000005f0       0x18 ../D8M_Camera_Test_bsp//newlib/nios2-elf/lib/libc.a(lib_a-rget.o)
 .debug_ranges  0x0000000000000608       0x10 ../D8M_Camera_Test_bsp//newlib/nios2-elf/lib/libc.a(lib_a-sbrkr.o)
 .debug_ranges  0x0000000000000618       0x10 ../D8M_Camera_Test_bsp//newlib/nios2-elf/lib/libc.a(lib_a-strlen.o)
 .debug_ranges  0x0000000000000628       0x90 ../D8M_Camera_Test_bsp//newlib/nios2-elf/lib/libc.a(lib_a-vfprintf.o)
 .debug_ranges  0x00000000000006b8       0x18 ../D8M_Camera_Test_bsp//newlib/nios2-elf/lib/libc.a(lib_a-wbuf.o)
 .debug_ranges  0x00000000000006d0       0x10 ../D8M_Camera_Test_bsp//newlib/nios2-elf/lib/libc.a(lib_a-wsetup.o)
 .debug_ranges  0x00000000000006e0       0x18 ../D8M_Camera_Test_bsp//newlib/nios2-elf/lib/libc.a(lib_a-dtoa.o)
 .debug_ranges  0x00000000000006f8       0x20 ../D8M_Camera_Test_bsp//newlib/nios2-elf/lib/libc.a(lib_a-fflush.o)
 .debug_ranges  0x0000000000000718       0x78 ../D8M_Camera_Test_bsp//newlib/nios2-elf/lib/libc.a(lib_a-findfp.o)
 .debug_ranges  0x0000000000000790       0x18 ../D8M_Camera_Test_bsp//newlib/nios2-elf/lib/libc.a(lib_a-freer.o)
 .debug_ranges  0x00000000000007a8       0x10 ../D8M_Camera_Test_bsp//newlib/nios2-elf/lib/libc.a(lib_a-fvwrite.o)
 .debug_ranges  0x00000000000007b8       0x18 ../D8M_Camera_Test_bsp//newlib/nios2-elf/lib/libc.a(lib_a-fwalk.o)
 .debug_ranges  0x00000000000007d0       0x48 ../D8M_Camera_Test_bsp//newlib/nios2-elf/lib/libc.a(lib_a-locale.o)
 .debug_ranges  0x0000000000000818       0x10 ../D8M_Camera_Test_bsp//newlib/nios2-elf/lib/libc.a(lib_a-makebuf.o)
 .debug_ranges  0x0000000000000828       0x10 ../D8M_Camera_Test_bsp//newlib/nios2-elf/lib/libc.a(lib_a-memchr.o)
 .debug_ranges  0x0000000000000838       0x10 ../D8M_Camera_Test_bsp//newlib/nios2-elf/lib/libc.a(lib_a-memcpy.o)
 .debug_ranges  0x0000000000000848       0x10 ../D8M_Camera_Test_bsp//newlib/nios2-elf/lib/libc.a(lib_a-memmove.o)
 .debug_ranges  0x0000000000000858       0xa0 ../D8M_Camera_Test_bsp//newlib/nios2-elf/lib/libc.a(lib_a-mprec.o)
 .debug_ranges  0x00000000000008f8       0x40 ../D8M_Camera_Test_bsp//newlib/nios2-elf/lib/libc.a(lib_a-reallocr.o)
 .debug_ranges  0x0000000000000938       0x18 ../D8M_Camera_Test_bsp//newlib/nios2-elf/lib/libc.a(lib_a-refill.o)
 .debug_ranges  0x0000000000000950       0x10 ../D8M_Camera_Test_bsp//newlib/nios2-elf/lib/libc.a(lib_a-s_fpclassify.o)
 .debug_ranges  0x0000000000000960       0x30 ../D8M_Camera_Test_bsp//newlib/nios2-elf/lib/libc.a(lib_a-stdio.o)
 .debug_ranges  0x0000000000000990       0x10 ../D8M_Camera_Test_bsp//newlib/nios2-elf/lib/libc.a(lib_a-strcmp.o)
 .debug_ranges  0x00000000000009a0       0x40 ../D8M_Camera_Test_bsp//newlib/nios2-elf/lib/libc.a(lib_a-vfiprintf.o)
 .debug_ranges  0x00000000000009e0       0x10 ../D8M_Camera_Test_bsp//newlib/nios2-elf/lib/libc.a(lib_a-writer.o)
 .debug_ranges  0x00000000000009f0       0x10 ../D8M_Camera_Test_bsp//newlib/nios2-elf/lib/libc.a(closer.o)
 .debug_ranges  0x0000000000000a00       0x10 ../D8M_Camera_Test_bsp//newlib/nios2-elf/lib/libc.a(lib_a-callocr.o)
 .debug_ranges  0x0000000000000a10       0x18 ../D8M_Camera_Test_bsp//newlib/nios2-elf/lib/libc.a(lib_a-fclose.o)
 .debug_ranges  0x0000000000000a28       0x20 ../D8M_Camera_Test_bsp//newlib/nios2-elf/lib/libc.a(lib_a-fputwc.o)
 .debug_ranges  0x0000000000000a48       0x10 ../D8M_Camera_Test_bsp//newlib/nios2-elf/lib/libc.a(lib_a-fstatr.o)
 .debug_ranges  0x0000000000000a58       0x10 ../D8M_Camera_Test_bsp//newlib/nios2-elf/lib/libc.a(lib_a-isattyr.o)
 .debug_ranges  0x0000000000000a68       0x10 ../D8M_Camera_Test_bsp//newlib/nios2-elf/lib/libc.a(lib_a-lseekr.o)
 .debug_ranges  0x0000000000000a78       0x10 ../D8M_Camera_Test_bsp//newlib/nios2-elf/lib/libc.a(lib_a-readr.o)
 .debug_ranges  0x0000000000000a88       0x18 ../D8M_Camera_Test_bsp//newlib/nios2-elf/lib/libc.a(lib_a-wcrtomb.o)
 .debug_ranges  0x0000000000000aa0       0x18 ../D8M_Camera_Test_bsp//newlib/nios2-elf/lib/libc.a(lib_a-wctomb_r.o)
 .debug_ranges  0x0000000000000ab8      0x158 /home/georgech/intelFPGA_lite/16.1/nios2eds/bin/gnu/H-x86_64-pc-linux-gnu/bin/../lib/gcc/nios2-elf/5.3.0/libgcc.a(_udivdi3.o)
 .debug_ranges  0x0000000000000c10      0x160 /home/georgech/intelFPGA_lite/16.1/nios2eds/bin/gnu/H-x86_64-pc-linux-gnu/bin/../lib/gcc/nios2-elf/5.3.0/libgcc.a(_umoddi3.o)
 .debug_ranges  0x0000000000000d70       0x60 /home/georgech/intelFPGA_lite/16.1/nios2eds/bin/gnu/H-x86_64-pc-linux-gnu/bin/../lib/gcc/nios2-elf/5.3.0/libgcc.a(lib2-divmod.o)
 .debug_ranges  0x0000000000000dd0      0x138 /home/georgech/intelFPGA_lite/16.1/nios2eds/bin/gnu/H-x86_64-pc-linux-gnu/bin/../lib/gcc/nios2-elf/5.3.0/libgcc.a(divdf3.o)
 .debug_ranges  0x0000000000000f08       0x48 /home/georgech/intelFPGA_lite/16.1/nios2eds/bin/gnu/H-x86_64-pc-linux-gnu/bin/../lib/gcc/nios2-elf/5.3.0/libgcc.a(eqdf2.o)
 .debug_ranges  0x0000000000000f50       0x88 /home/georgech/intelFPGA_lite/16.1/nios2eds/bin/gnu/H-x86_64-pc-linux-gnu/bin/../lib/gcc/nios2-elf/5.3.0/libgcc.a(gedf2.o)
 .debug_ranges  0x0000000000000fd8       0xa8 /home/georgech/intelFPGA_lite/16.1/nios2eds/bin/gnu/H-x86_64-pc-linux-gnu/bin/../lib/gcc/nios2-elf/5.3.0/libgcc.a(ledf2.o)
 .debug_ranges  0x0000000000001080      0x268 /home/georgech/intelFPGA_lite/16.1/nios2eds/bin/gnu/H-x86_64-pc-linux-gnu/bin/../lib/gcc/nios2-elf/5.3.0/libgcc.a(subdf3.o)
 .debug_ranges  0x00000000000012e8       0x30 /home/georgech/intelFPGA_lite/16.1/nios2eds/bin/gnu/H-x86_64-pc-linux-gnu/bin/../lib/gcc/nios2-elf/5.3.0/libgcc.a(fixdfsi.o)
 .debug_ranges  0x0000000000001318       0x18 /home/georgech/intelFPGA_lite/16.1/nios2eds/bin/gnu/H-x86_64-pc-linux-gnu/bin/../lib/gcc/nios2-elf/5.3.0/libgcc.a(floatunsidf.o)
 .debug_ranges  0x0000000000001330       0x30 ../D8M_Camera_Test_bsp//libhal_bsp.a(alt_close.o)
 .debug_ranges  0x0000000000001360       0x30 ../D8M_Camera_Test_bsp//libhal_bsp.a(alt_fcntl.o)
 .debug_ranges  0x0000000000001390       0x20 ../D8M_Camera_Test_bsp//libhal_bsp.a(alt_fstat.o)
 .debug_ranges  0x00000000000013b0       0x18 ../D8M_Camera_Test_bsp//libhal_bsp.a(alt_isatty.o)
 .debug_ranges  0x00000000000013c8       0x18 ../D8M_Camera_Test_bsp//libhal_bsp.a(alt_load.o)
 .debug_ranges  0x00000000000013e0       0x18 ../D8M_Camera_Test_bsp//libhal_bsp.a(alt_lseek.o)
 .debug_ranges  0x00000000000013f8       0x48 ../D8M_Camera_Test_bsp//libhal_bsp.a(alt_read.o)
 .debug_ranges  0x0000000000001440       0x30 ../D8M_Camera_Test_bsp//libhal_bsp.a(alt_tick.o)
 .debug_ranges  0x0000000000001470       0x48 ../D8M_Camera_Test_bsp//libhal_bsp.a(alt_write.o)
 .debug_ranges  0x00000000000014b8       0x38 ../D8M_Camera_Test_bsp//libhal_bsp.a(alt_sys_init.o)
 .debug_ranges  0x00000000000014f0       0x50 ../D8M_Camera_Test_bsp//libhal_bsp.a(altera_avalon_jtag_uart_init.o)
 .debug_ranges  0x0000000000001540       0x38 ../D8M_Camera_Test_bsp//libhal_bsp.a(altera_avalon_jtag_uart_read.o)
 .debug_ranges  0x0000000000001578       0x48 ../D8M_Camera_Test_bsp//libhal_bsp.a(altera_avalon_jtag_uart_write.o)
 .debug_ranges  0x00000000000015c0       0x18 ../D8M_Camera_Test_bsp//libhal_bsp.a(altera_avalon_timer_sc.o)
 .debug_ranges  0x00000000000015d8       0x88 ../D8M_Camera_Test_bsp//libhal_bsp.a(altera_avalon_uart_read.o)
 .debug_ranges  0x0000000000001660       0x38 ../D8M_Camera_Test_bsp//libhal_bsp.a(altera_avalon_uart_write.o)
 .debug_ranges  0x0000000000001698       0x38 ../D8M_Camera_Test_bsp//libhal_bsp.a(alt_dev_llist_insert.o)
 .debug_ranges  0x00000000000016d0       0x30 ../D8M_Camera_Test_bsp//libhal_bsp.a(alt_io_redirect.o)
 .debug_ranges  0x0000000000001700       0x28 ../D8M_Camera_Test_bsp//libhal_bsp.a(alt_irq_entry.o)
 .debug_ranges  0x0000000000001728       0x10 ../D8M_Camera_Test_bsp//libhal_bsp.a(alt_irq_handler.o)
 .debug_ranges  0x0000000000001738       0x40 ../D8M_Camera_Test_bsp//libhal_bsp.a(alt_open.o)
 .debug_ranges  0x0000000000001778       0x30 ../D8M_Camera_Test_bsp//libhal_bsp.a(alt_exception_entry.o)
 .debug_ranges  0x00000000000017a8       0x10 ../D8M_Camera_Test_bsp//libhal_bsp.a(alt_icache_flush.o)
 .debug_ranges  0x00000000000017b8       0x18 ../D8M_Camera_Test_bsp//libhal_bsp.a(alt_instruction_exception_entry.o)
 .debug_ranges  0x00000000000017d0       0x10 ../D8M_Camera_Test_bsp//newlib/nios2-elf/lib/libc.a(lib_a-atexit.o)
 .debug_ranges  0x00000000000017e0       0x10 ../D8M_Camera_Test_bsp//newlib/nios2-elf/lib/libc.a(lib_a-exit.o)
 .debug_ranges  0x00000000000017f0       0x10 ../D8M_Camera_Test_bsp//newlib/nios2-elf/lib/libc.a(lib_a-memcmp.o)
 .debug_ranges  0x0000000000001800       0x10 ../D8M_Camera_Test_bsp//newlib/nios2-elf/lib/libc.a(lib_a-__atexit.o)
 .debug_ranges  0x0000000000001810       0x10 ../D8M_Camera_Test_bsp//newlib/nios2-elf/lib/libc.a(lib_a-__call_atexit.o)
